
Debug/Exe/km0_image/km0_application.axf:     file format elf32-littlearm


Disassembly of section A3:

00083000 <IMAGE2$$Base>:
   83000:	0c00dd01 	.word	0x0c00dd01
	...

0008300c <RAM_IMG2_VALID_PATTEN>:
   8300c:	574b5452 ff006e69 00010100 01018195     RTKWin..........
   8301c:	00000000                                ....

00083020 <?Veneer 0 (3) for ipc_send_message>:
   83020:	b408      	push	{r3}
   83022:	4b02      	ldr	r3, [pc, #8]	; (8302c <?Veneer 0 (3) for ipc_send_message+0xc>)
   83024:	469c      	mov	ip, r3
   83026:	bc08      	pop	{r3}
   83028:	4760      	bx	ip
   8302a:	46c0      	nop			; (mov r8, r8)
   8302c:	0c0023e9 	.word	0x0c0023e9

00083030 <?Veneer 1 (3) for km4_status_on>:
   83030:	b408      	push	{r3}
   83032:	4b02      	ldr	r3, [pc, #8]	; (8303c <?Veneer 1 (3) for km4_status_on+0xc>)
   83034:	469c      	mov	ip, r3
   83036:	bc08      	pop	{r3}
   83038:	4760      	bx	ip
   8303a:	46c0      	nop			; (mov r8, r8)
   8303c:	0c001dcd 	.word	0x0c001dcd

00083040 <?Veneer 2 (3) for xTaskGetSchedulerState>:
   83040:	b408      	push	{r3}
   83042:	4b02      	ldr	r3, [pc, #8]	; (8304c <?Veneer 2 (3) for xTaskGetSchedulerState+0xc>)
   83044:	469c      	mov	ip, r3
   83046:	bc08      	pop	{r3}
   83048:	4760      	bx	ip
   8304a:	46c0      	nop			; (mov r8, r8)
   8304c:	0c0006f7 	.word	0x0c0006f7

00083050 <?Veneer 3 (3) for xTaskIncrementTick>:
   83050:	b408      	push	{r3}
   83052:	4b02      	ldr	r3, [pc, #8]	; (8305c <?Veneer 3 (3) for xTaskIncrementTick+0xc>)
   83054:	469c      	mov	ip, r3
   83056:	bc08      	pop	{r3}
   83058:	4760      	bx	ip
   8305a:	46c0      	nop			; (mov r8, r8)
   8305c:	0c000431 	.word	0x0c000431

00083060 <FLASH_Write_IPC_Int>:
   83060:	f3ef 8010 	mrs	r0, PRIMASK
   83064:	2800      	cmp	r0, #0
   83066:	d104      	bne.n	83072 <??FLASH_Write_IPC_Int_0>
   83068:	b672      	cpsid	i
   8306a:	bf20      	wfe
   8306c:	bf20      	wfe
   8306e:	b662      	cpsie	i
   83070:	4770      	bx	lr

00083072 <??FLASH_Write_IPC_Int_0>:
   83072:	bf20      	wfe
   83074:	bf20      	wfe
   83076:	4770      	bx	lr

00083078 <FLASH_Write_Lock>:
   83078:	b510      	push	{r4, lr}
   8307a:	f77f fffa 	bl	3072 <IPC_INTGet+0x3>
   8307e:	b672      	cpsid	i
   83080:	4c25      	ldr	r4, [pc, #148]	; (83118 <??DataTable5>)
   83082:	4926      	ldr	r1, [pc, #152]	; (8311c <??DataTable5_1>)
   83084:	680a      	ldr	r2, [r1, #0]
   83086:	6022      	str	r2, [r4, #0]
   83088:	2200      	movs	r2, #0
   8308a:	600a      	str	r2, [r1, #0]
   8308c:	2801      	cmp	r0, #1
   8308e:	d10b      	bne.n	830a8 <??FLASH_Write_Lock_0>
   83090:	2100      	movs	r1, #0
   83092:	2002      	movs	r0, #2
   83094:	f7ff ffc4 	bl	83020 <?Veneer 0 (3) for ipc_send_message>

00083098 <??FLASH_Write_Lock_1>:
   83098:	4821      	ldr	r0, [pc, #132]	; (83120 <??DataTable5_2>)
   8309a:	6800      	ldr	r0, [r0, #0]
   8309c:	06c0      	lsls	r0, r0, #27
   8309e:	d5fb      	bpl.n	83098 <??FLASH_Write_Lock_1>

000830a0 <??FLASH_Write_Lock_2>:
   830a0:	f780 fbf0 	bl	3884 <SYSTIMER_Init+0x4b>
   830a4:	6060      	str	r0, [r4, #4]
   830a6:	bd10      	pop	{r4, pc}

000830a8 <??FLASH_Write_Lock_0>:
   830a8:	f7ff ffc2 	bl	83030 <?Veneer 1 (3) for km4_status_on>
   830ac:	2800      	cmp	r0, #0
   830ae:	d0f7      	beq.n	830a0 <??FLASH_Write_Lock_2>
   830b0:	2100      	movs	r1, #0
   830b2:	2002      	movs	r0, #2
   830b4:	f7ff ffb4 	bl	83020 <?Veneer 0 (3) for ipc_send_message>

000830b8 <??FLASH_Write_Lock_3>:
   830b8:	481a      	ldr	r0, [pc, #104]	; (83124 <??DataTable5_3>)
   830ba:	6800      	ldr	r0, [r0, #0]
   830bc:	07c0      	lsls	r0, r0, #31
   830be:	d5fb      	bpl.n	830b8 <??FLASH_Write_Lock_3>
   830c0:	e7ee      	b.n	830a0 <??FLASH_Write_Lock_2>
	...

000830c4 <FLASH_Write_Unlock>:
   830c4:	b5f8      	push	{r3, r4, r5, r6, r7, lr}
   830c6:	f77f ffd4 	bl	3072 <IPC_INTGet+0x3>
   830ca:	0005      	movs	r5, r0
   830cc:	4f12      	ldr	r7, [pc, #72]	; (83118 <??DataTable5>)
   830ce:	f7ff ffb7 	bl	83040 <?Veneer 2 (3) for xTaskGetSchedulerState>
   830d2:	2801      	cmp	r0, #1
   830d4:	d00a      	beq.n	830ec <??FLASH_Write_Unlock_0>
   830d6:	6878      	ldr	r0, [r7, #4]
   830d8:	f780 fbde 	bl	3898 <SYSTIMER_TickGet+0x13>
   830dc:	2600      	movs	r6, #0
   830de:	0004      	movs	r4, r0
   830e0:	e002      	b.n	830e8 <??FLASH_Write_Unlock_1>

000830e2 <??FLASH_Write_Unlock_2>:
   830e2:	f7ff ffb5 	bl	83050 <?Veneer 3 (3) for xTaskIncrementTick>
   830e6:	1c76      	adds	r6, r6, #1

000830e8 <??FLASH_Write_Unlock_1>:
   830e8:	42a6      	cmp	r6, r4
   830ea:	d3fa      	bcc.n	830e2 <??FLASH_Write_Unlock_2>

000830ec <??FLASH_Write_Unlock_0>:
   830ec:	bf40      	sev
   830ee:	2d01      	cmp	r5, #1
   830f0:	d108      	bne.n	83104 <??FLASH_Write_Unlock_3>

000830f2 <??FLASH_Write_Unlock_4>:
   830f2:	480b      	ldr	r0, [pc, #44]	; (83120 <??DataTable5_2>)
   830f4:	6800      	ldr	r0, [r0, #0]
   830f6:	06c0      	lsls	r0, r0, #27
   830f8:	d4fb      	bmi.n	830f2 <??FLASH_Write_Unlock_4>

000830fa <??FLASH_Write_Unlock_5>:
   830fa:	6838      	ldr	r0, [r7, #0]
   830fc:	4907      	ldr	r1, [pc, #28]	; (8311c <??DataTable5_1>)
   830fe:	6008      	str	r0, [r1, #0]
   83100:	b662      	cpsie	i
   83102:	bdf1      	pop	{r0, r4, r5, r6, r7, pc}

00083104 <??FLASH_Write_Unlock_3>:
   83104:	f7ff ff94 	bl	83030 <?Veneer 1 (3) for km4_status_on>
   83108:	2800      	cmp	r0, #0
   8310a:	d0f6      	beq.n	830fa <??FLASH_Write_Unlock_5>

0008310c <??FLASH_Write_Unlock_6>:
   8310c:	4805      	ldr	r0, [pc, #20]	; (83124 <??DataTable5_3>)
   8310e:	6800      	ldr	r0, [r0, #0]
   83110:	07c0      	lsls	r0, r0, #31
   83112:	d4fb      	bmi.n	8310c <??FLASH_Write_Unlock_6>
   83114:	e7f1      	b.n	830fa <??FLASH_Write_Unlock_5>
	...

00083118 <??DataTable5>:
   83118:	9788 0008                                   ....

0008311c <??DataTable5_1>:
   8311c:	e010 e000                                   ....

00083120 <??DataTable5_2>:
   83120:	0204 4800                                   ...H

00083124 <??DataTable5_3>:
   83124:	000c 4000                                   ...@

00083128 <FLASH_ClockSwitch>:
   83128:	b530      	push	{r4, r5, lr}
   8312a:	b081      	sub	sp, #4
   8312c:	000c      	movs	r4, r1
   8312e:	d005      	beq.n	8313c <??FLASH_ClockSwitch_0>
   83130:	b672      	cpsid	i
   83132:	4931      	ldr	r1, [pc, #196]	; (831f8 <??DataTable7_2>)
   83134:	680a      	ldr	r2, [r1, #0]
   83136:	2301      	movs	r3, #1
   83138:	439a      	bics	r2, r3
   8313a:	600a      	str	r2, [r1, #0]

0008313c <??FLASH_ClockSwitch_0>:
   8313c:	f240 2100 	movw	r1, #512	; 0x200
   83140:	4288      	cmp	r0, r1
   83142:	d11b      	bne.n	8317c <??FLASH_ClockSwitch_1>
   83144:	4d2d      	ldr	r5, [pc, #180]	; (831fc <??DataTable7_3>)
   83146:	6828      	ldr	r0, [r5, #0]
   83148:	4a2d      	ldr	r2, [pc, #180]	; (83200 <??DataTable7_4>)
   8314a:	4002      	ands	r2, r0
   8314c:	4311      	orrs	r1, r2
   8314e:	6029      	str	r1, [r5, #0]
   83150:	200a      	movs	r0, #10
   83152:	f77e f9b6 	bl	14c2 <DelayNop+0xd>
   83156:	68a8      	ldr	r0, [r5, #8]
   83158:	492a      	ldr	r1, [pc, #168]	; (83204 <??DataTable7_5>)
   8315a:	4001      	ands	r1, r0
   8315c:	60a9      	str	r1, [r5, #8]
   8315e:	2000      	movs	r0, #0
   83160:	f781 fd2e 	bl	4bc0 <FLASH_CalibrationPhaseIdx+0x17>
   83164:	4828      	ldr	r0, [pc, #160]	; (83208 <??DataTable7_6>)
   83166:	6801      	ldr	r1, [r0, #0]
   83168:	2208      	movs	r2, #8
   8316a:	4391      	bics	r1, r2
   8316c:	6001      	str	r1, [r0, #0]
   8316e:	6801      	ldr	r1, [r0, #0]
   83170:	4a26      	ldr	r2, [pc, #152]	; (8320c <??DataTable7_7>)
   83172:	400a      	ands	r2, r1
   83174:	6002      	str	r2, [r0, #0]
   83176:	4826      	ldr	r0, [pc, #152]	; (83210 <??DataTable7_8>)
   83178:	2101      	movs	r1, #1
   8317a:	e027      	b.n	831cc <??FLASH_ClockSwitch_2>

0008317c <??FLASH_ClockSwitch_1>:
   8317c:	004d      	lsls	r5, r1, #1
   8317e:	42a8      	cmp	r0, r5
   83180:	d128      	bne.n	831d4 <??FLASH_ClockSwitch_3>
   83182:	4821      	ldr	r0, [pc, #132]	; (83208 <??DataTable7_6>)
   83184:	6801      	ldr	r1, [r0, #0]
   83186:	012a      	lsls	r2, r5, #4
   83188:	430a      	orrs	r2, r1
   8318a:	6002      	str	r2, [r0, #0]
   8318c:	6801      	ldr	r1, [r0, #0]
   8318e:	2208      	movs	r2, #8
   83190:	430a      	orrs	r2, r1
   83192:	6002      	str	r2, [r0, #0]
   83194:	2001      	movs	r0, #1
   83196:	f781 fd13 	bl	4bc0 <FLASH_CalibrationPhaseIdx+0x17>
   8319a:	4818      	ldr	r0, [pc, #96]	; (831fc <??DataTable7_3>)
   8319c:	6881      	ldr	r1, [r0, #8]
   8319e:	f243 0200 	movw	r2, #12288	; 0x3000
   831a2:	430a      	orrs	r2, r1
   831a4:	6082      	str	r2, [r0, #8]
   831a6:	2114      	movs	r1, #20
   831a8:	220c      	movs	r2, #12

000831aa <??FLASH_ClockSwitch_4>:
   831aa:	6883      	ldr	r3, [r0, #8]
   831ac:	1e49      	subs	r1, r1, #1
   831ae:	4013      	ands	r3, r2
   831b0:	2b0c      	cmp	r3, #12
   831b2:	d001      	beq.n	831b8 <??FLASH_ClockSwitch_5>
   831b4:	2900      	cmp	r1, #0
   831b6:	d1f8      	bne.n	831aa <??FLASH_ClockSwitch_4>

000831b8 <??FLASH_ClockSwitch_5>:
   831b8:	6801      	ldr	r1, [r0, #0]
   831ba:	4a11      	ldr	r2, [pc, #68]	; (83200 <??DataTable7_4>)
   831bc:	400a      	ands	r2, r1
   831be:	4315      	orrs	r5, r2
   831c0:	6005      	str	r5, [r0, #0]
   831c2:	200a      	movs	r0, #10
   831c4:	f77e f97d 	bl	14c2 <DelayNop+0xd>
   831c8:	4811      	ldr	r0, [pc, #68]	; (83210 <??DataTable7_8>)
   831ca:	7f01      	ldrb	r1, [r0, #28]

000831cc <??FLASH_ClockSwitch_2>:
   831cc:	7741      	strb	r1, [r0, #29]
   831ce:	7901      	ldrb	r1, [r0, #4]
   831d0:	f77e fd5e 	bl	1c90 <FLASH_SW_CS_Control+0x3f>

000831d4 <??FLASH_ClockSwitch_3>:
   831d4:	b12c      	cbz	r4, 831e2 <??FLASH_ClockSwitch_6>
   831d6:	4808      	ldr	r0, [pc, #32]	; (831f8 <??DataTable7_2>)
   831d8:	6801      	ldr	r1, [r0, #0]
   831da:	2201      	movs	r2, #1
   831dc:	430a      	orrs	r2, r1
   831de:	6002      	str	r2, [r0, #0]
   831e0:	b662      	cpsie	i

000831e2 <??FLASH_ClockSwitch_6>:
   831e2:	b001      	add	sp, #4
   831e4:	bd30      	pop	{r4, r5, pc}
	...

000831e8 <FLASH_Invalidate_Auto_Write>:
   831e8:	2000      	movs	r0, #0
   831ea:	490a      	ldr	r1, [pc, #40]	; (83214 <??DataTable7_9>)
   831ec:	6008      	str	r0, [r1, #0]
   831ee:	31ec      	adds	r1, #236	; 0xec
   831f0:	6008      	str	r0, [r1, #0]
   831f2:	6148      	str	r0, [r1, #20]
   831f4:	4770      	bx	lr
	...

000831f8 <??DataTable7_2>:
   831f8:	e010 e000                                   ....

000831fc <??DataTable7_3>:
   831fc:	0210 4800                                   ...H

00083200 <??DataTable7_4>:
   83200:	f9ff ffff                                   ....

00083204 <??DataTable7_5>:
   83204:	cfff ffff                                   ....

00083208 <??DataTable7_6>:
   83208:	02c0 4800                                   ...H

0008320c <??DataTable7_7>:
   8320c:	bfff ffff                                   ....

00083210 <??DataTable7_8>:
   83210:	01f8 0008                                   ....

00083214 <??DataTable7_9>:
   83214:	0008 4808                                   ...H

00083218 <_flash_calibration_highspeed>:
   83218:	b5f8      	push	{r3, r4, r5, r6, r7, lr}
   8321a:	b084      	sub	sp, #16
   8321c:	0005      	movs	r5, r0
   8321e:	000e      	movs	r6, r1
   83220:	2000      	movs	r0, #0
   83222:	9000      	str	r0, [sp, #0]
   83224:	9003      	str	r0, [sp, #12]
   83226:	201e      	movs	r0, #30
   83228:	f781 fc5c 	bl	4ae4 <FLASH_ClockDiv+0x9b>
   8322c:	2001      	movs	r0, #1
   8322e:	4c92      	ldr	r4, [pc, #584]	; (83478 <??DataTable10>)
   83230:	4669      	mov	r1, sp
   83232:	724d      	strb	r5, [r1, #9]
   83234:	720e      	strb	r6, [r1, #8]
   83236:	2500      	movs	r5, #0
   83238:	9f00      	ldr	r7, [sp, #0]
   8323a:	2601      	movs	r6, #1

0008323c <??_flash_calibration_highspeed_0>:
   8323c:	9001      	str	r0, [sp, #4]
   8323e:	b2f0      	uxtb	r0, r6
   83240:	9000      	str	r0, [sp, #0]
   83242:	2302      	movs	r3, #2
   83244:	4668      	mov	r0, sp
   83246:	7a02      	ldrb	r2, [r0, #8]
   83248:	7a41      	ldrb	r1, [r0, #9]
   8324a:	0020      	movs	r0, r4
   8324c:	f781 fcd6 	bl	4bfc <FLASH_CalibrationNewCmd+0x3b>
   83250:	2158      	movs	r1, #88	; 0x58
   83252:	5c61      	ldrb	r1, [r4, r1]
   83254:	b2c2      	uxtb	r2, r0
   83256:	2001      	movs	r0, #1
   83258:	000b      	movs	r3, r1
   8325a:	d001      	beq.n	83260 <??_flash_calibration_highspeed_1>
   8325c:	2101      	movs	r1, #1
   8325e:	4319      	orrs	r1, r3

00083260 <??_flash_calibration_highspeed_1>:
   83260:	4295      	cmp	r5, r2
   83262:	d202      	bcs.n	8326a <??_flash_calibration_highspeed_2>
   83264:	0015      	movs	r5, r2
   83266:	9603      	str	r6, [sp, #12]
   83268:	000f      	movs	r7, r1

0008326a <??_flash_calibration_highspeed_2>:
   8326a:	2100      	movs	r1, #0
   8326c:	2258      	movs	r2, #88	; 0x58
   8326e:	54a1      	strb	r1, [r4, r2]
   83270:	1c76      	adds	r6, r6, #1
   83272:	2e06      	cmp	r6, #6
   83274:	d3e2      	bcc.n	8323c <??_flash_calibration_highspeed_0>
   83276:	002a      	movs	r2, r5
   83278:	9d03      	ldr	r5, [sp, #12]
   8327a:	d00b      	beq.n	83294 <??_flash_calibration_highspeed_3>
   8327c:	003b      	movs	r3, r7
   8327e:	0029      	movs	r1, r5
   83280:	487e      	ldr	r0, [pc, #504]	; (8347c <??DataTable10_1>)
   83282:	f77d f8f7 	bl	474 <DiagVSprintf+0x35f>
   83286:	2058      	movs	r0, #88	; 0x58
   83288:	5427      	strb	r7, [r4, r0]
   8328a:	7765      	strb	r5, [r4, #29]
   8328c:	7f60      	ldrb	r0, [r4, #29]
   8328e:	7720      	strb	r0, [r4, #28]
   83290:	2001      	movs	r0, #1
   83292:	e001      	b.n	83298 <??_flash_calibration_highspeed_4>

00083294 <??_flash_calibration_highspeed_3>:
   83294:	7760      	strb	r0, [r4, #29]
   83296:	2000      	movs	r0, #0

00083298 <??_flash_calibration_highspeed_4>:
   83298:	b005      	add	sp, #20
   8329a:	bdf0      	pop	{r4, r5, r6, r7, pc}

0008329c <flash_calibration_highspeed>:
   8329c:	b5f1      	push	{r0, r4, r5, r6, r7, lr}
   8329e:	b082      	sub	sp, #8
   832a0:	2601      	movs	r6, #1
   832a2:	4875      	ldr	r0, [pc, #468]	; (83478 <??DataTable10>)
   832a4:	7900      	ldrb	r0, [r0, #4]
   832a6:	4669      	mov	r1, sp
   832a8:	7008      	strb	r0, [r1, #0]
   832aa:	4c75      	ldr	r4, [pc, #468]	; (83480 <??DataTable10_2>)
   832ac:	2000      	movs	r0, #0
   832ae:	7020      	strb	r0, [r4, #0]
   832b0:	4668      	mov	r0, sp
   832b2:	7a00      	ldrb	r0, [r0, #8]
   832b4:	f781 fbc8 	bl	4a48 <CPU_ClkGet+0x23>
   832b8:	0475      	lsls	r5, r6, #17
   832ba:	4f72      	ldr	r7, [pc, #456]	; (83484 <??DataTable10_3>)
   832bc:	4668      	mov	r0, sp
   832be:	7a01      	ldrb	r1, [r0, #8]
   832c0:	7800      	ldrb	r0, [r0, #0]
   832c2:	f7ff ffa9 	bl	83218 <_flash_calibration_highspeed>
   832c6:	2801      	cmp	r0, #1
   832c8:	d110      	bne.n	832ec <??flash_calibration_highspeed_0>
   832ca:	f781 fc79 	bl	4bc0 <FLASH_CalibrationPhaseIdx+0x17>
   832ce:	7860      	ldrb	r0, [r4, #1]
   832d0:	f781 fc6a 	bl	4ba8 <FLASH_CalibrationPhase+0x8b>
   832d4:	4668      	mov	r0, sp
   832d6:	7800      	ldrb	r0, [r0, #0]
   832d8:	f77f f902 	bl	24e0 <FLASH_StructInit+0x8f>
   832dc:	6838      	ldr	r0, [r7, #0]
   832de:	4005      	ands	r5, r0
   832e0:	d012      	beq.n	83308 <??flash_calibration_highspeed_1>
   832e2:	bf00      	nop
   832e4:	a06d      	add	r0, pc, #436	; (adr r0, 8349c <?_2>)
   832e6:	f77d f8c5 	bl	474 <DiagVSprintf+0x35f>
   832ea:	e00d      	b.n	83308 <??flash_calibration_highspeed_1>

000832ec <??flash_calibration_highspeed_0>:
   832ec:	4866      	ldr	r0, [pc, #408]	; (83488 <??DataTable10_4>)
   832ee:	6801      	ldr	r1, [r0, #0]
   832f0:	4a66      	ldr	r2, [pc, #408]	; (8348c <??DataTable10_5>)
   832f2:	400a      	ands	r2, r1
   832f4:	0a29      	lsrs	r1, r5, #8
   832f6:	4311      	orrs	r1, r2
   832f8:	6001      	str	r1, [r0, #0]
   832fa:	6838      	ldr	r0, [r7, #0]
   832fc:	4005      	ands	r5, r0
   832fe:	d002      	beq.n	83306 <??flash_calibration_highspeed_2>
   83300:	a06c      	add	r0, pc, #432	; (adr r0, 834b4 <?_3>)
   83302:	f77d f8b7 	bl	474 <DiagVSprintf+0x35f>

00083306 <??flash_calibration_highspeed_2>:
   83306:	2600      	movs	r6, #0

00083308 <??flash_calibration_highspeed_1>:
   83308:	0030      	movs	r0, r6
   8330a:	bdfe      	pop	{r1, r2, r3, r4, r5, r6, r7, pc}

0008330c <flash_rx_mode_switch>:
   8330c:	b5f8      	push	{r3, r4, r5, r6, r7, lr}
   8330e:	b086      	sub	sp, #24
   83310:	2101      	movs	r1, #1
   83312:	9105      	str	r1, [sp, #20]
   83314:	2100      	movs	r1, #0
   83316:	466a      	mov	r2, sp
   83318:	7011      	strb	r1, [r2, #0]
   8331a:	4957      	ldr	r1, [pc, #348]	; (83478 <??DataTable10>)
   8331c:	9101      	str	r1, [sp, #4]
   8331e:	3157      	adds	r1, #87	; 0x57
   83320:	9102      	str	r1, [sp, #8]
   83322:	0005      	movs	r5, r0
   83324:	2701      	movs	r7, #1
   83326:	e00d      	b.n	83344 <??flash_rx_mode_switch_0>

00083328 <??flash_rx_mode_switch_1>:
   83328:	9801      	ldr	r0, [sp, #4]
   8332a:	2157      	movs	r1, #87	; 0x57
   8332c:	5c40      	ldrb	r0, [r0, r1]
   8332e:	b140      	cbz	r0, 83342 <??flash_rx_mode_switch_2>
   83330:	4854      	ldr	r0, [pc, #336]	; (83484 <??DataTable10_3>)
   83332:	6800      	ldr	r0, [r0, #0]
   83334:	0380      	lsls	r0, r0, #14
   83336:	d504      	bpl.n	83342 <??flash_rx_mode_switch_2>
   83338:	0029      	movs	r1, r5
   8333a:	bf00      	nop
   8333c:	a067      	add	r0, pc, #412	; (adr r0, 834dc <?_6>)
   8333e:	f77d f899 	bl	474 <DiagVSprintf+0x35f>

00083342 <??flash_rx_mode_switch_2>:
   83342:	1c6d      	adds	r5, r5, #1

00083344 <??flash_rx_mode_switch_0>:
   83344:	2400      	movs	r4, #0
   83346:	2d04      	cmp	r5, #4
   83348:	dd00      	ble.n	8334c <??flash_rx_mode_switch_0+0x8>
   8334a:	e087      	b.n	8345c <??flash_rx_mode_switch_3>
   8334c:	b985      	cbnz	r5, 83370 <??flash_rx_mode_switch_4>
   8334e:	9a02      	ldr	r2, [sp, #8]
   83350:	70d7      	strb	r7, [r2, #3]
   83352:	f640 2110 	movw	r1, #2576	; 0xa10
   83356:	9a01      	ldr	r2, [sp, #4]
   83358:	6491      	str	r1, [r2, #72]	; 0x48
   8335a:	9901      	ldr	r1, [sp, #4]
   8335c:	2220      	movs	r2, #32
   8335e:	5c89      	ldrb	r1, [r1, r2]
   83360:	000a      	movs	r2, r1
   83362:	32fe      	adds	r2, #254	; 0xfe
   83364:	9b01      	ldr	r3, [sp, #4]
   83366:	2420      	movs	r4, #32
   83368:	551a      	strb	r2, [r3, r4]
   8336a:	2402      	movs	r4, #2
   8336c:	20eb      	movs	r0, #235	; 0xeb
   8336e:	e033      	b.n	833d8 <??flash_rx_mode_switch_5>

00083370 <??flash_rx_mode_switch_4>:
   83370:	2108      	movs	r1, #8
   83372:	2d01      	cmp	r5, #1
   83374:	d10c      	bne.n	83390 <??flash_rx_mode_switch_6>
   83376:	9a02      	ldr	r2, [sp, #8]
   83378:	70d4      	strb	r4, [r2, #3]
   8337a:	f240 2208 	movw	r2, #520	; 0x208
   8337e:	9b01      	ldr	r3, [sp, #4]
   83380:	649a      	str	r2, [r3, #72]	; 0x48
   83382:	9a01      	ldr	r2, [sp, #4]
   83384:	2320      	movs	r3, #32
   83386:	54d1      	strb	r1, [r2, r3]
   83388:	2680      	movs	r6, #128	; 0x80
   8338a:	2402      	movs	r4, #2
   8338c:	206b      	movs	r0, #107	; 0x6b
   8338e:	e024      	b.n	833da <??flash_rx_mode_switch_7>

00083390 <??flash_rx_mode_switch_6>:
   83390:	2d02      	cmp	r5, #2
   83392:	d10e      	bne.n	833b2 <??flash_rx_mode_switch_8>
   83394:	9902      	ldr	r1, [sp, #8]
   83396:	70cf      	strb	r7, [r1, #3]
   83398:	f641 2001 	movw	r0, #6657	; 0x1a01
   8339c:	9901      	ldr	r1, [sp, #4]
   8339e:	6448      	str	r0, [r1, #68]	; 0x44
   833a0:	9801      	ldr	r0, [sp, #4]
   833a2:	7fc1      	ldrb	r1, [r0, #31]
   833a4:	0008      	movs	r0, r1
   833a6:	30fc      	adds	r0, #252	; 0xfc
   833a8:	9a01      	ldr	r2, [sp, #4]
   833aa:	77d0      	strb	r0, [r2, #31]
   833ac:	2401      	movs	r4, #1
   833ae:	20bb      	movs	r0, #187	; 0xbb
   833b0:	e012      	b.n	833d8 <??flash_rx_mode_switch_5>

000833b2 <??flash_rx_mode_switch_8>:
   833b2:	2d03      	cmp	r5, #3
   833b4:	d10b      	bne.n	833ce <??flash_rx_mode_switch_9>
   833b6:	9802      	ldr	r0, [sp, #8]
   833b8:	70c4      	strb	r4, [r0, #3]
   833ba:	f240 2002 	movw	r0, #514	; 0x202
   833be:	9a01      	ldr	r2, [sp, #4]
   833c0:	6450      	str	r0, [r2, #68]	; 0x44
   833c2:	9801      	ldr	r0, [sp, #4]
   833c4:	77c1      	strb	r1, [r0, #31]
   833c6:	2680      	movs	r6, #128	; 0x80
   833c8:	2401      	movs	r4, #1
   833ca:	203b      	movs	r0, #59	; 0x3b
   833cc:	e005      	b.n	833da <??flash_rx_mode_switch_7>

000833ce <??flash_rx_mode_switch_9>:
   833ce:	9902      	ldr	r1, [sp, #8]
   833d0:	70cc      	strb	r4, [r1, #3]
   833d2:	9801      	ldr	r0, [sp, #4]
   833d4:	7f81      	ldrb	r1, [r0, #30]
   833d6:	2003      	movs	r0, #3

000833d8 <??flash_rx_mode_switch_5>:
   833d8:	010e      	lsls	r6, r1, #4

000833da <??flash_rx_mode_switch_7>:
   833da:	9901      	ldr	r1, [sp, #4]
   833dc:	6088      	str	r0, [r1, #8]
   833de:	9801      	ldr	r0, [sp, #4]
   833e0:	6800      	ldr	r0, [r0, #0]
   833e2:	2803      	cmp	r0, #3
   833e4:	d110      	bne.n	83408 <??flash_rx_mode_switch_10>
   833e6:	466a      	mov	r2, sp
   833e8:	2101      	movs	r1, #1
   833ea:	2085      	movs	r0, #133	; 0x85
   833ec:	f77e fc96 	bl	1d1c <FLASH_SetSpiMode+0x8b>
   833f0:	4668      	mov	r0, sp
   833f2:	7800      	ldrb	r0, [r0, #0]
   833f4:	0700      	lsls	r0, r0, #28
   833f6:	0f00      	lsrs	r0, r0, #28
   833f8:	4306      	orrs	r6, r0
   833fa:	4668      	mov	r0, sp
   833fc:	7006      	strb	r6, [r0, #0]
   833fe:	466a      	mov	r2, sp
   83400:	2101      	movs	r1, #1
   83402:	2081      	movs	r0, #129	; 0x81
   83404:	f77e fe90 	bl	2128 <FLASH_TxData12B+0xdf>

00083408 <??flash_rx_mode_switch_10>:
   83408:	9801      	ldr	r0, [sp, #4]
   8340a:	7747      	strb	r7, [r0, #29]
   8340c:	0020      	movs	r0, r4
   8340e:	f77f f867 	bl	24e0 <FLASH_StructInit+0x8f>
   83412:	481f      	ldr	r0, [pc, #124]	; (83490 <??DataTable10_6>)
   83414:	6800      	ldr	r0, [r0, #0]
   83416:	03c0      	lsls	r0, r0, #15
   83418:	d508      	bpl.n	8342c <??flash_rx_mode_switch_11>
   8341a:	f3bf 8f4f 	dsb	sy
   8341e:	06f8      	lsls	r0, r7, #27
   83420:	491c      	ldr	r1, [pc, #112]	; (83494 <??DataTable10_7>)
   83422:	6008      	str	r0, [r1, #0]
   83424:	f3bf 8f4f 	dsb	sy
   83428:	f3bf 8f6f 	isb	sy

0008342c <??flash_rx_mode_switch_11>:
   8342c:	06f8      	lsls	r0, r7, #27
   8342e:	6800      	ldr	r0, [r0, #0]
   83430:	9003      	str	r0, [sp, #12]
   83432:	06f8      	lsls	r0, r7, #27
   83434:	6840      	ldr	r0, [r0, #4]
   83436:	9004      	str	r0, [sp, #16]
   83438:	2208      	movs	r2, #8
   8343a:	4917      	ldr	r1, [pc, #92]	; (83498 <??DataTable10_8>)
   8343c:	a803      	add	r0, sp, #12
   8343e:	f783 f881 	bl	6544 <_memchr+0x7f>
   83442:	2800      	cmp	r0, #0
   83444:	d000      	beq.n	83448 <??flash_rx_mode_switch_11+0x1c>
   83446:	e76f      	b.n	83328 <??flash_rx_mode_switch_1>
   83448:	0029      	movs	r1, r5
   8344a:	480e      	ldr	r0, [pc, #56]	; (83484 <??DataTable10_3>)
   8344c:	6800      	ldr	r0, [r0, #0]
   8344e:	0380      	lsls	r0, r0, #14
   83450:	d50e      	bpl.n	83470 <??flash_rx_mode_switch_12>
   83452:	bf00      	nop
   83454:	a01d      	add	r0, pc, #116	; (adr r0, 834cc <?_5>)
   83456:	f77d f80d 	bl	474 <DiagVSprintf+0x35f>
   8345a:	e009      	b.n	83470 <??flash_rx_mode_switch_12>

0008345c <??flash_rx_mode_switch_3>:
   8345c:	2d05      	cmp	r5, #5
   8345e:	d107      	bne.n	83470 <??flash_rx_mode_switch_12>
   83460:	4808      	ldr	r0, [pc, #32]	; (83484 <??DataTable10_3>)
   83462:	6800      	ldr	r0, [r0, #0]
   83464:	0380      	lsls	r0, r0, #14
   83466:	d502      	bpl.n	8346e <??flash_rx_mode_switch_13>
   83468:	a021      	add	r0, pc, #132	; (adr r0, 834f0 <?_7>)
   8346a:	f77d f803 	bl	474 <DiagVSprintf+0x35f>

0008346e <??flash_rx_mode_switch_13>:
   8346e:	9405      	str	r4, [sp, #20]

00083470 <??flash_rx_mode_switch_12>:
   83470:	9805      	ldr	r0, [sp, #20]
   83472:	b007      	add	sp, #28
   83474:	bdf0      	pop	{r4, r5, r6, r7, pc}
	...

00083478 <??DataTable10>:
   83478:	01f8 0008                                   ....

0008347c <??DataTable10_1>:
   8347c:	3dc8 0008                                   .=..

00083480 <??DataTable10_2>:
   83480:	024f 0008                                   O...

00083484 <??DataTable10_3>:
   83484:	01cc 0008                                   ....

00083488 <??DataTable10_4>:
   83488:	0210 4800                                   ...H

0008348c <??DataTable10_5>:
   8348c:	f9ff ffff                                   ....

00083490 <??DataTable10_6>:
   83490:	ed14 e000                                   ....

00083494 <??DataTable10_7>:
   83494:	ef5c e000                                   \...

00083498 <??DataTable10_8>:
   83498:	0064 0002                                   d...

0008349c <?_2>:
   8349c:	460d 414c 4853 4320 4c41 4249 4e5b 5745     .FLASH CALIB[NEW
   834ac:	4f20 5d4b 000a 0000                          OK]....

000834b4 <?_3>:
   834b4:	460d 414c 4853 4320 4c41 4249 4e5b 5745     .FLASH CALIB[NEW
   834c4:	4620 4941 5d4c 000a                          FAIL]..

000834cc <?_5>:
   834cc:	720d 6165 5f64 6f6d 6564 253a 0a64 0000     .read_mode:%d...

000834dc <?_6>:
   834dc:	720d 6165 2064 6f6d 6564 2520 2064 6166     .read mode %d fa
   834ec:	6c69 000a                                   il..

000834f0 <?_7>:
   834f0:	460d 616c 6873 7220 6165 2064 6f6d 6564     .Flash read mode
   83500:	7320 6977 6374 2068 4146 4c49 0a21 0000      switch FAIL!...

00083510 <?Veneer 5 (3) for km4_flash_highspeed_resume>:
   83510:	b408      	push	{r3}
   83512:	4b02      	ldr	r3, [pc, #8]	; (8351c <?Veneer 5 (3) for km4_flash_highspeed_resume+0xc>)
   83514:	469c      	mov	ip, r3
   83516:	bc08      	pop	{r3}
   83518:	4760      	bx	ip
   8351a:	46c0      	nop			; (mov r8, r8)
   8351c:	0c001feb 	.word	0x0c001feb

00083520 <?Veneer 6 (3) for pmu_exec_sleep_hook_funs>:
   83520:	b408      	push	{r3}
   83522:	4b02      	ldr	r3, [pc, #8]	; (8352c <?Veneer 6 (3) for pmu_exec_sleep_hook_funs+0xc>)
   83524:	469c      	mov	ip, r3
   83526:	bc08      	pop	{r3}
   83528:	4760      	bx	ip
   8352a:	46c0      	nop			; (mov r8, r8)
   8352c:	0c000e05 	.word	0x0c000e05

00083530 <?Veneer 7 (3) for pmu_exec_wakeup_hook_funs>:
   83530:	b408      	push	{r3}
   83532:	4b02      	ldr	r3, [pc, #8]	; (8353c <?Veneer 7 (3) for pmu_exec_wakeup_hook_funs+0xc>)
   83534:	469c      	mov	ip, r3
   83536:	bc08      	pop	{r3}
   83538:	4760      	bx	ip
   8353a:	46c0      	nop			; (mov r8, r8)
   8353c:	0c000e27 	.word	0x0c000e27

00083540 <?Veneer 8 (3) for km4_set_wake_event>:
   83540:	b408      	push	{r3}
   83542:	4b02      	ldr	r3, [pc, #8]	; (8354c <?Veneer 8 (3) for km4_set_wake_event+0xc>)
   83544:	469c      	mov	ip, r3
   83546:	bc08      	pop	{r3}
   83548:	4760      	bx	ip
   8354a:	46c0      	nop			; (mov r8, r8)
   8354c:	0c001f81 	.word	0x0c001f81

00083550 <SOCPS_SWR_PFMForce>:
   83550:	4770      	bx	lr

00083552 <SOCPS_SNOOZE_Config>:
   83552:	4a83      	ldr	r2, [pc, #524]	; (83760 <.image2.ram.text_27>)
   83554:	6813      	ldr	r3, [r2, #0]
   83556:	2901      	cmp	r1, #1
   83558:	d101      	bne.n	8355e <SOCPS_SNOOZE_Config+0xc>
   8355a:	4318      	orrs	r0, r3
   8355c:	e001      	b.n	83562 <SOCPS_SNOOZE_Config+0x10>
   8355e:	4383      	bics	r3, r0
   83560:	0018      	movs	r0, r3
   83562:	6010      	str	r0, [r2, #0]
   83564:	4770      	bx	lr

00083566 <SOCPS_AONWakeReason>:
   83566:	487f      	ldr	r0, [pc, #508]	; (83764 <.image2.ram.text_29>)
   83568:	6800      	ldr	r0, [r0, #0]
   8356a:	4770      	bx	lr

0008356c <SOCPS_AONWakeClear>:
   8356c:	497d      	ldr	r1, [pc, #500]	; (83764 <.image2.ram.text_29>)
   8356e:	6008      	str	r0, [r1, #0]
   83570:	4770      	bx	lr

00083572 <SOCPS_WakePinCheck>:
   83572:	487d      	ldr	r0, [pc, #500]	; (83768 <.image2.ram.text_30>)
   83574:	6800      	ldr	r0, [r0, #0]
   83576:	0100      	lsls	r0, r0, #4
   83578:	0f00      	lsrs	r0, r0, #28
   8357a:	4770      	bx	lr

0008357c <SOCPS_SetPeripheralClock>:
   8357c:	b430      	push	{r4, r5}
   8357e:	497b      	ldr	r1, [pc, #492]	; (8376c <.image2.ram.text_31>)
   83580:	2210      	movs	r2, #16
   83582:	2300      	movs	r3, #0
   83584:	43db      	mvns	r3, r3
   83586:	e000      	b.n	8358a <SOCPS_SetPeripheralClock+0xe>
   83588:	3108      	adds	r1, #8
   8358a:	680c      	ldr	r4, [r1, #0]
   8358c:	429c      	cmp	r4, r3
   8358e:	d00f      	beq.n	835b0 <SOCPS_SetPeripheralClock+0x34>
   83590:	684d      	ldr	r5, [r1, #4]
   83592:	2d01      	cmp	r5, #1
   83594:	d1f8      	bne.n	83588 <SOCPS_SetPeripheralClock+0xc>
   83596:	4014      	ands	r4, r2
   83598:	d0f6      	beq.n	83588 <SOCPS_SetPeripheralClock+0xc>
   8359a:	4975      	ldr	r1, [pc, #468]	; (83770 <.image2.ram.text_32>)
   8359c:	680a      	ldr	r2, [r1, #0]
   8359e:	2801      	cmp	r0, #1
   835a0:	d103      	bne.n	835aa <SOCPS_SetPeripheralClock+0x2e>
   835a2:	2080      	movs	r0, #128	; 0x80
   835a4:	0380      	lsls	r0, r0, #14
   835a6:	4310      	orrs	r0, r2
   835a8:	e001      	b.n	835ae <SOCPS_SetPeripheralClock+0x32>
   835aa:	4872      	ldr	r0, [pc, #456]	; (83774 <.image2.ram.text_33>)
   835ac:	4010      	ands	r0, r2
   835ae:	6008      	str	r0, [r1, #0]
   835b0:	bc30      	pop	{r4, r5}
   835b2:	4770      	bx	lr

000835b4 <SOCPS_AONTimer>:
   835b4:	b190      	cbz	r0, 835dc <SOCPS_AONTimer+0x28>
   835b6:	4970      	ldr	r1, [pc, #448]	; (83778 <.image2.ram.text_34>)
   835b8:	680a      	ldr	r2, [r1, #0]
   835ba:	2304      	movs	r3, #4
   835bc:	439a      	bics	r2, r3
   835be:	600a      	str	r2, [r1, #0]
   835c0:	0142      	lsls	r2, r0, #5
   835c2:	0843      	lsrs	r3, r0, #1
   835c4:	18d2      	adds	r2, r2, r3
   835c6:	0883      	lsrs	r3, r0, #2
   835c8:	18d2      	adds	r2, r2, r3
   835ca:	0983      	lsrs	r3, r0, #6
   835cc:	18d2      	adds	r2, r2, r3
   835ce:	0a43      	lsrs	r3, r0, #9
   835d0:	18d2      	adds	r2, r2, r3
   835d2:	0ac0      	lsrs	r0, r0, #11
   835d4:	1810      	adds	r0, r2, r0
   835d6:	0080      	lsls	r0, r0, #2
   835d8:	0880      	lsrs	r0, r0, #2
   835da:	62c8      	str	r0, [r1, #44]	; 0x2c
   835dc:	4770      	bx	lr

000835de <SOCPS_AONTimerCmd>:
   835de:	496c      	ldr	r1, [pc, #432]	; (83790 <.image2.ram.text_41>)
   835e0:	680a      	ldr	r2, [r1, #0]
   835e2:	b910      	cbnz	r0, 835ea <SOCPS_AONTimerCmd+0xc>
   835e4:	0050      	lsls	r0, r2, #1
   835e6:	0840      	lsrs	r0, r0, #1
   835e8:	e002      	b.n	835f0 <SOCPS_AONTimerCmd+0x12>
   835ea:	2080      	movs	r0, #128	; 0x80
   835ec:	0600      	lsls	r0, r0, #24
   835ee:	4310      	orrs	r0, r2
   835f0:	6008      	str	r0, [r1, #0]
   835f2:	2002      	movs	r0, #2
   835f4:	62c8      	str	r0, [r1, #44]	; 0x2c
   835f6:	4770      	bx	lr

000835f8 <SOCPS_SetWakepin>:
   835f8:	b430      	push	{r4, r5}
   835fa:	4b66      	ldr	r3, [pc, #408]	; (83794 <.image2.ram.text_44>)
   835fc:	2401      	movs	r4, #1
   835fe:	621c      	str	r4, [r3, #32]
   83600:	681a      	ldr	r2, [r3, #0]
   83602:	43a2      	bics	r2, r4
   83604:	601a      	str	r2, [r3, #0]
   83606:	685d      	ldr	r5, [r3, #4]
   83608:	2201      	movs	r2, #1
   8360a:	4082      	lsls	r2, r0
   8360c:	4395      	bics	r5, r2
   8360e:	2901      	cmp	r1, #1
   83610:	d101      	bne.n	83616 <SOCPS_SetWakepin+0x1e>
   83612:	432a      	orrs	r2, r5
   83614:	0015      	movs	r5, r2
   83616:	605d      	str	r5, [r3, #4]
   83618:	6818      	ldr	r0, [r3, #0]
   8361a:	4304      	orrs	r4, r0
   8361c:	601c      	str	r4, [r3, #0]
   8361e:	bc30      	pop	{r4, r5}
   83620:	4770      	bx	lr

00083622 <SOCPS_SYSIrq>:
   83622:	b510      	push	{r4, lr}
   83624:	f000 f964 	bl	838f0 <SOCPS_SleepDeInit>
   83628:	4c5b      	ldr	r4, [pc, #364]	; (83798 <.image2.ram.text_45>)
   8362a:	485c      	ldr	r0, [pc, #368]	; (8379c <.image2.ram.text_46>)
   8362c:	6800      	ldr	r0, [r0, #0]
   8362e:	b148      	cbz	r0, 83644 <SOCPS_SYSIrq+0x22>
   83630:	6820      	ldr	r0, [r4, #0]
   83632:	b938      	cbnz	r0, 83644 <SOCPS_SYSIrq+0x22>
   83634:	485a      	ldr	r0, [pc, #360]	; (837a0 <.image2.ram.text_47>)
   83636:	6800      	ldr	r0, [r0, #0]
   83638:	0380      	lsls	r0, r0, #14
   8363a:	d503      	bpl.n	83644 <SOCPS_SYSIrq+0x22>
   8363c:	68a1      	ldr	r1, [r4, #8]
   8363e:	4878      	ldr	r0, [pc, #480]	; (83820 <.image2.ram.text_51>)
   83640:	f77c ff18 	bl	474 <DiagVSprintf+0x35f>
   83644:	2000      	movs	r0, #0
   83646:	6020      	str	r0, [r4, #0]
   83648:	bd10      	pop	{r4, pc}

0008364a <SOCPS_MMUBackup>:
   8364a:	4856      	ldr	r0, [pc, #344]	; (837a4 <.image2.ram.text_48>)
   8364c:	4975      	ldr	r1, [pc, #468]	; (83824 <.image2.ram.text_52>)
   8364e:	680a      	ldr	r2, [r1, #0]
   83650:	6002      	str	r2, [r0, #0]
   83652:	688a      	ldr	r2, [r1, #8]
   83654:	6082      	str	r2, [r0, #8]
   83656:	68ca      	ldr	r2, [r1, #12]
   83658:	60c2      	str	r2, [r0, #12]
   8365a:	684a      	ldr	r2, [r1, #4]
   8365c:	6042      	str	r2, [r0, #4]
   8365e:	690a      	ldr	r2, [r1, #16]
   83660:	6102      	str	r2, [r0, #16]
   83662:	698a      	ldr	r2, [r1, #24]
   83664:	6182      	str	r2, [r0, #24]
   83666:	69ca      	ldr	r2, [r1, #28]
   83668:	61c2      	str	r2, [r0, #28]
   8366a:	6949      	ldr	r1, [r1, #20]
   8366c:	6141      	str	r1, [r0, #20]
   8366e:	4770      	bx	lr

00083670 <SOCPS_MMUReFill>:
   83670:	484c      	ldr	r0, [pc, #304]	; (837a4 <.image2.ram.text_48>)
   83672:	496c      	ldr	r1, [pc, #432]	; (83824 <.image2.ram.text_52>)
   83674:	6802      	ldr	r2, [r0, #0]
   83676:	600a      	str	r2, [r1, #0]
   83678:	6882      	ldr	r2, [r0, #8]
   8367a:	608a      	str	r2, [r1, #8]
   8367c:	68c2      	ldr	r2, [r0, #12]
   8367e:	60ca      	str	r2, [r1, #12]
   83680:	6842      	ldr	r2, [r0, #4]
   83682:	604a      	str	r2, [r1, #4]
   83684:	6902      	ldr	r2, [r0, #16]
   83686:	610a      	str	r2, [r1, #16]
   83688:	6982      	ldr	r2, [r0, #24]
   8368a:	618a      	str	r2, [r1, #24]
   8368c:	69c2      	ldr	r2, [r0, #28]
   8368e:	61ca      	str	r2, [r1, #28]
   83690:	6940      	ldr	r0, [r0, #20]
   83692:	6148      	str	r0, [r1, #20]
   83694:	4770      	bx	lr
	...

00083698 <SOCPS_WakeFromPG>:
   83698:	b510      	push	{r4, lr}
   8369a:	f7ff ffe9 	bl	83670 <SOCPS_MMUReFill>
   8369e:	2000      	movs	r0, #0
   836a0:	f7ff ff36 	bl	83510 <?Veneer 5 (3) for km4_flash_highspeed_resume>
   836a4:	4860      	ldr	r0, [pc, #384]	; (83828 <.image2.ram.text_53>)
   836a6:	6880      	ldr	r0, [r0, #8]
   836a8:	b138      	cbz	r0, 836ba <SOCPS_WakeFromPG+0x22>
   836aa:	483d      	ldr	r0, [pc, #244]	; (837a0 <.image2.ram.text_47>)
   836ac:	6800      	ldr	r0, [r0, #0]
   836ae:	0380      	lsls	r0, r0, #14
   836b0:	d503      	bpl.n	836ba <SOCPS_WakeFromPG+0x22>
   836b2:	bf00      	nop
   836b4:	a031      	add	r0, pc, #196	; (adr r0, 8377c <.image2.ram.text_38>)
   836b6:	f77c fedd 	bl	474 <DiagVSprintf+0x35f>
   836ba:	485c      	ldr	r0, [pc, #368]	; (8382c <.image2.ram.text_54>)
   836bc:	495c      	ldr	r1, [pc, #368]	; (83830 <.image2.ram.text_55>)
   836be:	6008      	str	r0, [r1, #0]
   836c0:	495c      	ldr	r1, [pc, #368]	; (83834 <.image2.ram.text_56>)
   836c2:	000a      	movs	r2, r1
   836c4:	329c      	adds	r2, #156	; 0x9c
   836c6:	485c      	ldr	r0, [pc, #368]	; (83838 <.image2.ram.text_57>)
   836c8:	6ac3      	ldr	r3, [r0, #44]	; 0x2c
   836ca:	6093      	str	r3, [r2, #8]
   836cc:	4b5b      	ldr	r3, [pc, #364]	; (8383c <.image2.ram.text_58>)
   836ce:	62c3      	str	r3, [r0, #44]	; 0x2c
   836d0:	6813      	ldr	r3, [r2, #0]
   836d2:	6c08      	ldr	r0, [r1, #64]	; 0x40
   836d4:	2480      	movs	r4, #128	; 0x80
   836d6:	0464      	lsls	r4, r4, #17
   836d8:	4304      	orrs	r4, r0
   836da:	1f18      	subs	r0, r3, #4
   836dc:	6004      	str	r4, [r0, #0]
   836de:	6bcc      	ldr	r4, [r1, #60]	; 0x3c
   836e0:	0018      	movs	r0, r3
   836e2:	3808      	subs	r0, #8
   836e4:	6004      	str	r4, [r0, #0]
   836e6:	6b8c      	ldr	r4, [r1, #56]	; 0x38
   836e8:	0018      	movs	r0, r3
   836ea:	380c      	subs	r0, #12
   836ec:	6004      	str	r4, [r0, #0]
   836ee:	6b0c      	ldr	r4, [r1, #48]	; 0x30
   836f0:	0018      	movs	r0, r3
   836f2:	3810      	subs	r0, #16
   836f4:	6004      	str	r4, [r0, #0]
   836f6:	68cc      	ldr	r4, [r1, #12]
   836f8:	0018      	movs	r0, r3
   836fa:	3814      	subs	r0, #20
   836fc:	6004      	str	r4, [r0, #0]
   836fe:	688c      	ldr	r4, [r1, #8]
   83700:	0018      	movs	r0, r3
   83702:	3818      	subs	r0, #24
   83704:	6004      	str	r4, [r0, #0]
   83706:	684c      	ldr	r4, [r1, #4]
   83708:	0018      	movs	r0, r3
   8370a:	381c      	subs	r0, #28
   8370c:	6004      	str	r4, [r0, #0]
   8370e:	680c      	ldr	r4, [r1, #0]
   83710:	0018      	movs	r0, r3
   83712:	3820      	subs	r0, #32
   83714:	6004      	str	r4, [r0, #0]
   83716:	69cc      	ldr	r4, [r1, #28]
   83718:	0018      	movs	r0, r3
   8371a:	3824      	subs	r0, #36	; 0x24
   8371c:	6004      	str	r4, [r0, #0]
   8371e:	698c      	ldr	r4, [r1, #24]
   83720:	0018      	movs	r0, r3
   83722:	3828      	subs	r0, #40	; 0x28
   83724:	6004      	str	r4, [r0, #0]
   83726:	694c      	ldr	r4, [r1, #20]
   83728:	0018      	movs	r0, r3
   8372a:	382c      	subs	r0, #44	; 0x2c
   8372c:	6004      	str	r4, [r0, #0]
   8372e:	690c      	ldr	r4, [r1, #16]
   83730:	0018      	movs	r0, r3
   83732:	3830      	subs	r0, #48	; 0x30
   83734:	6004      	str	r4, [r0, #0]
   83736:	6acc      	ldr	r4, [r1, #44]	; 0x2c
   83738:	0018      	movs	r0, r3
   8373a:	3834      	subs	r0, #52	; 0x34
   8373c:	6004      	str	r4, [r0, #0]
   8373e:	6a8c      	ldr	r4, [r1, #40]	; 0x28
   83740:	0018      	movs	r0, r3
   83742:	3838      	subs	r0, #56	; 0x38
   83744:	6004      	str	r4, [r0, #0]
   83746:	6a4c      	ldr	r4, [r1, #36]	; 0x24
   83748:	0018      	movs	r0, r3
   8374a:	383c      	subs	r0, #60	; 0x3c
   8374c:	6004      	str	r4, [r0, #0]
   8374e:	3b40      	subs	r3, #64	; 0x40
   83750:	6a08      	ldr	r0, [r1, #32]
   83752:	6018      	str	r0, [r3, #0]
   83754:	6013      	str	r3, [r2, #0]
   83756:	b662      	cpsie	i
   83758:	df00      	svc	0
   8375a:	bf00      	nop
   8375c:	bd10      	pop	{r4, pc}
	...

00083760 <.image2.ram.text_27>:
   83760:	48000060 	.word	0x48000060

00083764 <.image2.ram.text_29>:
   83764:	4800005c 	.word	0x4800005c

00083768 <.image2.ram.text_30>:
   83768:	48000040 	.word	0x48000040

0008376c <.image2.ram.text_31>:
   8376c:	00084204 	.word	0x00084204

00083770 <.image2.ram.text_32>:
   83770:	48000214 	.word	0x48000214

00083774 <.image2.ram.text_33>:
   83774:	ffdfffff 	.word	0xffdfffff

00083778 <.image2.ram.text_34>:
   83778:	48000004 	.word	0x48000004

0008377c <.image2.ram.text_38>:
   8377c:	434f530d 	.word	0x434f530d
   83780:	575f5350 	.word	0x575f5350
   83784:	46656b61 	.word	0x46656b61
   83788:	506d6f72 	.word	0x506d6f72
   8378c:	000a2047 	.word	0x000a2047

00083790 <.image2.ram.text_41>:
   83790:	48000030 	.word	0x48000030

00083794 <.image2.ram.text_44>:
   83794:	4800003c 	.word	0x4800003c

00083798 <.image2.ram.text_45>:
   83798:	00089aec 	.word	0x00089aec

0008379c <.image2.ram.text_46>:
   8379c:	00089b14 	.word	0x00089b14

000837a0 <.image2.ram.text_47>:
   837a0:	000801cc 	.word	0x000801cc

000837a4 <.image2.ram.text_48>:
   837a4:	00089acc 	.word	0x00089acc

000837a8 <SOCPS_KM4Wake>:
   837a8:	b4f0      	push	{r4, r5, r6, r7}
   837aa:	485b      	ldr	r0, [pc, #364]	; (83918 <.image2.ram.text_64>)
   837ac:	68c3      	ldr	r3, [r0, #12]
   837ae:	6904      	ldr	r4, [r0, #16]
   837b0:	4d5a      	ldr	r5, [pc, #360]	; (8391c <.image2.ram.text_65>)
   837b2:	f240 3104 	movw	r1, #772	; 0x304
   837b6:	2200      	movs	r2, #0
   837b8:	43d2      	mvns	r2, r2
   837ba:	e00d      	b.n	837d8 <SOCPS_KM4Wake+0x30>
   837bc:	2e5c      	cmp	r6, #92	; 0x5c
   837be:	d10a      	bne.n	837d6 <SOCPS_KM4Wake+0x2e>
   837c0:	686e      	ldr	r6, [r5, #4]
   837c2:	43b4      	bics	r4, r6
   837c4:	e007      	b.n	837d6 <SOCPS_KM4Wake+0x2e>
   837c6:	68af      	ldr	r7, [r5, #8]
   837c8:	2f01      	cmp	r7, #1
   837ca:	d122      	bne.n	83812 <SOCPS_KM4Wake+0x6a>
   837cc:	428e      	cmp	r6, r1
   837ce:	d11a      	bne.n	83806 <SOCPS_KM4Wake+0x5e>
   837d0:	001e      	movs	r6, r3
   837d2:	686b      	ldr	r3, [r5, #4]
   837d4:	4333      	orrs	r3, r6
   837d6:	350c      	adds	r5, #12
   837d8:	682e      	ldr	r6, [r5, #0]
   837da:	4296      	cmp	r6, r2
   837dc:	d1f3      	bne.n	837c6 <SOCPS_KM4Wake+0x1e>
   837de:	6104      	str	r4, [r0, #16]
   837e0:	60c3      	str	r3, [r0, #12]
   837e2:	494f      	ldr	r1, [pc, #316]	; (83920 <.image2.ram.text_66>)
   837e4:	6809      	ldr	r1, [r1, #0]
   837e6:	461a      	mov	r2, r3
   837e8:	6883      	ldr	r3, [r0, #8]
   837ea:	4013      	ands	r3, r2
   837ec:	4019      	ands	r1, r3
   837ee:	6840      	ldr	r0, [r0, #4]
   837f0:	4020      	ands	r0, r4
   837f2:	4a4c      	ldr	r2, [pc, #304]	; (83924 <.image2.ram.text_67>)
   837f4:	6812      	ldr	r2, [r2, #0]
   837f6:	4002      	ands	r2, r0
   837f8:	430a      	orrs	r2, r1
   837fa:	1e50      	subs	r0, r2, #1
   837fc:	4180      	sbcs	r0, r0
   837fe:	43c0      	mvns	r0, r0
   83800:	0fc0      	lsrs	r0, r0, #31
   83802:	bcf0      	pop	{r4, r5, r6, r7}
   83804:	4770      	bx	lr
   83806:	2e5c      	cmp	r6, #92	; 0x5c
   83808:	d1e5      	bne.n	837d6 <SOCPS_KM4Wake+0x2e>
   8380a:	0026      	movs	r6, r4
   8380c:	686c      	ldr	r4, [r5, #4]
   8380e:	4334      	orrs	r4, r6
   83810:	e7e1      	b.n	837d6 <SOCPS_KM4Wake+0x2e>
   83812:	428e      	cmp	r6, r1
   83814:	d1d2      	bne.n	837bc <SOCPS_KM4Wake+0x14>
   83816:	686e      	ldr	r6, [r5, #4]
   83818:	43b3      	bics	r3, r6
   8381a:	e7dc      	b.n	837d6 <SOCPS_KM4Wake+0x2e>
   8381c:	0000      	movs	r0, r0
	...

00083820 <.image2.ram.text_51>:
   83820:	0c010c10 	.word	0x0c010c10

00083824 <.image2.ram.text_52>:
   83824:	48000630 	.word	0x48000630

00083828 <.image2.ram.text_53>:
   83828:	0008441c 	.word	0x0008441c

0008382c <.image2.ram.text_54>:
   8382c:	f0f00000 	.word	0xf0f00000

00083830 <.image2.ram.text_55>:
   83830:	e000ed20 	.word	0xe000ed20

00083834 <.image2.ram.text_56>:
   83834:	000899d8 	.word	0x000899d8

00083838 <.image2.ram.text_57>:
   83838:	00080000 	.word	0x00080000

0008383c <.image2.ram.text_58>:
   8383c:	0c0017c5 	.word	0x0c0017c5

00083840 <SOCPS_SleepCG>:
   83840:	b5f0      	push	{r4, r5, r6, r7, lr}
   83842:	b081      	sub	sp, #4
   83844:	4d38      	ldr	r5, [pc, #224]	; (83928 <.image2.ram.text_68>)
   83846:	68a8      	ldr	r0, [r5, #8]
   83848:	b138      	cbz	r0, 8385a <SOCPS_SleepCG+0x1a>
   8384a:	4838      	ldr	r0, [pc, #224]	; (8392c <.image2.ram.text_69>)
   8384c:	6800      	ldr	r0, [r0, #0]
   8384e:	0380      	lsls	r0, r0, #14
   83850:	d503      	bpl.n	8385a <SOCPS_SleepCG+0x1a>
   83852:	bf00      	nop
   83854:	a03a      	add	r0, pc, #232	; (adr r0, 83940 <.image2.ram.text_75>)
   83856:	f77c fe0d 	bl	474 <DiagVSprintf+0x35f>
   8385a:	4f35      	ldr	r7, [pc, #212]	; (83930 <.image2.ram.text_70>)
   8385c:	2000      	movs	r0, #0
   8385e:	6038      	str	r0, [r7, #0]
   83860:	f7ff fe5e 	bl	83520 <?Veneer 6 (3) for pmu_exec_sleep_hook_funs>
   83864:	0004      	movs	r4, r0
   83866:	2c1f      	cmp	r4, #31
   83868:	d00c      	beq.n	83884 <SOCPS_SleepCG+0x44>
   8386a:	f7ff fe61 	bl	83530 <?Veneer 7 (3) for pmu_exec_wakeup_hook_funs>
   8386e:	482f      	ldr	r0, [pc, #188]	; (8392c <.image2.ram.text_69>)
   83870:	6800      	ldr	r0, [r0, #0]
   83872:	0380      	lsls	r0, r0, #14
   83874:	d503      	bpl.n	8387e <SOCPS_SleepCG+0x3e>
   83876:	0021      	movs	r1, r4
   83878:	a034      	add	r0, pc, #208	; (adr r0, 8394c <.image2.ram.text_76>)
   8387a:	f77c fdfb 	bl	474 <DiagVSprintf+0x35f>
   8387e:	f000 f837 	bl	838f0 <SOCPS_SleepDeInit>
   83882:	e033      	b.n	838ec <SOCPS_SleepCG+0xac>
   83884:	482b      	ldr	r0, [pc, #172]	; (83934 <.image2.ram.text_71>)
   83886:	f780 f881 	bl	398c <RTIM_Cmd+0xb1>
   8388a:	f240 112c 	movw	r1, #300	; 0x12c
   8388e:	1840      	adds	r0, r0, r1
   83890:	62a8      	str	r0, [r5, #40]	; 0x28
   83892:	4c21      	ldr	r4, [pc, #132]	; (83918 <.image2.ram.text_64>)
   83894:	2001      	movs	r0, #1
   83896:	6020      	str	r0, [r4, #0]
   83898:	4e27      	ldr	r6, [pc, #156]	; (83938 <.image2.ram.text_72>)
   8389a:	6830      	ldr	r0, [r6, #0]
   8389c:	2180      	movs	r1, #128	; 0x80
   8389e:	4388      	bics	r0, r1
   838a0:	6030      	str	r0, [r6, #0]
   838a2:	2001      	movs	r0, #1
   838a4:	f7ff fe6a 	bl	8357c <SOCPS_SetPeripheralClock>
   838a8:	f000 f922 	bl	83af0 <SOCPS_SleepCG_RAM>
   838ac:	6830      	ldr	r0, [r6, #0]
   838ae:	2180      	movs	r1, #128	; 0x80
   838b0:	4301      	orrs	r1, r0
   838b2:	6031      	str	r1, [r6, #0]
   838b4:	2000      	movs	r0, #0
   838b6:	f7ff fe61 	bl	8357c <SOCPS_SetPeripheralClock>
   838ba:	6938      	ldr	r0, [r7, #16]
   838bc:	60a0      	str	r0, [r4, #8]
   838be:	6db0      	ldr	r0, [r6, #88]	; 0x58
   838c0:	6060      	str	r0, [r4, #4]
   838c2:	201f      	movs	r0, #31
   838c4:	f7ff fe34 	bl	83530 <?Veneer 7 (3) for pmu_exec_wakeup_hook_funs>
   838c8:	68a8      	ldr	r0, [r5, #8]
   838ca:	b140      	cbz	r0, 838de <SOCPS_SleepCG+0x9e>
   838cc:	4817      	ldr	r0, [pc, #92]	; (8392c <.image2.ram.text_69>)
   838ce:	6800      	ldr	r0, [r0, #0]
   838d0:	0380      	lsls	r0, r0, #14
   838d2:	d504      	bpl.n	838de <SOCPS_SleepCG+0x9e>
   838d4:	68a2      	ldr	r2, [r4, #8]
   838d6:	6861      	ldr	r1, [r4, #4]
   838d8:	a023      	add	r0, pc, #140	; (adr r0, 83968 <.image2.ram.text_77>)
   838da:	f77c fdcb 	bl	474 <DiagVSprintf+0x35f>
   838de:	f7ff ff63 	bl	837a8 <SOCPS_KM4Wake>
   838e2:	2801      	cmp	r0, #1
   838e4:	d102      	bne.n	838ec <SOCPS_SleepCG+0xac>
   838e6:	2080      	movs	r0, #128	; 0x80
   838e8:	f7ff fe2a 	bl	83540 <?Veneer 8 (3) for km4_set_wake_event>
   838ec:	b001      	add	sp, #4
   838ee:	bdf0      	pop	{r4, r5, r6, r7, pc}

000838f0 <SOCPS_SleepDeInit>:
   838f0:	b500      	push	{lr}
   838f2:	b081      	sub	sp, #4
   838f4:	2000      	movs	r0, #0
   838f6:	f7ff fe72 	bl	835de <SOCPS_AONTimerCmd>
   838fa:	2100      	movs	r1, #0
   838fc:	2000      	movs	r0, #0
   838fe:	43c0      	mvns	r0, r0
   83900:	f000 f86a 	bl	839d8 <SOCPS_SetWakeEvent>
   83904:	f000 f882 	bl	83a0c <SOCPS_ClearWakePin>
   83908:	f000 f889 	bl	83a1e <SOCPS_ClearWakeEvent>
   8390c:	2001      	movs	r0, #1
   8390e:	490b      	ldr	r1, [pc, #44]	; (8393c <.image2.ram.text_73>)
   83910:	6008      	str	r0, [r1, #0]
   83912:	b001      	add	sp, #4
   83914:	bd00      	pop	{pc}
	...

00083918 <.image2.ram.text_64>:
   83918:	00089aec 	.word	0x00089aec

0008391c <.image2.ram.text_65>:
   8391c:	000842ac 	.word	0x000842ac

00083920 <.image2.ram.text_66>:
   83920:	48000300 	.word	0x48000300

00083924 <.image2.ram.text_67>:
   83924:	48000058 	.word	0x48000058

00083928 <.image2.ram.text_68>:
   83928:	0008441c 	.word	0x0008441c

0008392c <.image2.ram.text_69>:
   8392c:	000801cc 	.word	0x000801cc

00083930 <.image2.ram.text_70>:
   83930:	480002f4 	.word	0x480002f4

00083934 <.image2.ram.text_71>:
   83934:	48002280 	.word	0x48002280

00083938 <.image2.ram.text_72>:
   83938:	48000004 	.word	0x48000004

0008393c <.image2.ram.text_73>:
   8393c:	e000e280 	.word	0xe000e280

00083940 <.image2.ram.text_75>:
   83940:	304d4b0d 	.word	0x304d4b0d
   83944:	0a204743 	.word	0x0a204743
   83948:	00          	.byte	0x00
   83949:	00          	.byte	0x00
	...

0008394c <.image2.ram.text_76>:
   8394c:	706f4f0d 	.word	0x706f4f0d
   83950:	53203a73 	.word	0x53203a73
   83954:	7065656c 	.word	0x7065656c
   83958:	69614620 	.word	0x69614620
   8395c:	7825206c 	.word	0x7825206c
   83960:	21212120 	.word	0x21212120
   83964:	000a2121 	.word	0x000a2121

00083968 <.image2.ram.text_77>:
   83968:	304d4b0d 	.word	0x304d4b0d
   8396c:	202d4743 	.word	0x202d4743
   83970:	25207825 	.word	0x25207825
   83974:	00000a78 	.word	0x00000a78

00083978 <?Veneer 9 (3) for pinmap_sleep>:
   83978:	b408      	push	{r3}
   8397a:	4b02      	ldr	r3, [pc, #8]	; (83984 <?Veneer 9 (3) for pinmap_sleep+0xc>)
   8397c:	469c      	mov	ip, r3
   8397e:	bc08      	pop	{r3}
   83980:	4760      	bx	ip
   83982:	46c0      	nop			; (mov r8, r8)
   83984:	0c0022bf 	.word	0x0c0022bf

00083988 <?Veneer 10 (3) for km4_flash_highspeed_suspend>:
   83988:	b408      	push	{r3}
   8398a:	4b02      	ldr	r3, [pc, #8]	; (83994 <?Veneer 10 (3) for km4_flash_highspeed_suspend+0xc>)
   8398c:	469c      	mov	ip, r3
   8398e:	bc08      	pop	{r3}
   83990:	4760      	bx	ip
   83992:	46c0      	nop			; (mov r8, r8)
   83994:	0c001fc5 	.word	0x0c001fc5

00083998 <?Veneer 11 (3) for SOCPS_OSC2M_Cmd>:
   83998:	b408      	push	{r3}
   8399a:	4b02      	ldr	r3, [pc, #8]	; (839a4 <?Veneer 11 (3) for SOCPS_OSC2M_Cmd+0xc>)
   8399c:	469c      	mov	ip, r3
   8399e:	bc08      	pop	{r3}
   839a0:	4760      	bx	ip
   839a2:	46c0      	nop			; (mov r8, r8)
   839a4:	0c00222d 	.word	0x0c00222d

000839a8 <?Veneer 12 (3) for pinmap_wake>:
   839a8:	b408      	push	{r3}
   839aa:	4b02      	ldr	r3, [pc, #8]	; (839b4 <?Veneer 12 (3) for pinmap_wake+0xc>)
   839ac:	469c      	mov	ip, r3
   839ae:	bc08      	pop	{r3}
   839b0:	4760      	bx	ip
   839b2:	46c0      	nop			; (mov r8, r8)
   839b4:	0c002335 	.word	0x0c002335

000839b8 <?Veneer 13 (3) for SOCPS_DsleepInit>:
   839b8:	b408      	push	{r3}
   839ba:	4b02      	ldr	r3, [pc, #8]	; (839c4 <?Veneer 13 (3) for SOCPS_DsleepInit+0xc>)
   839bc:	469c      	mov	ip, r3
   839be:	bc08      	pop	{r3}
   839c0:	4760      	bx	ip
   839c2:	46c0      	nop			; (mov r8, r8)
   839c4:	0c001c5d 	.word	0x0c001c5d

000839c8 <?Veneer 14 (3) for pinmap_deepsleep>:
   839c8:	b408      	push	{r3}
   839ca:	4b02      	ldr	r3, [pc, #8]	; (839d4 <?Veneer 14 (3) for pinmap_deepsleep+0xc>)
   839cc:	469c      	mov	ip, r3
   839ce:	bc08      	pop	{r3}
   839d0:	4760      	bx	ip
   839d2:	46c0      	nop			; (mov r8, r8)
   839d4:	0c0022f9 	.word	0x0c0022f9

000839d8 <SOCPS_SetWakeEvent>:
   839d8:	b410      	push	{r4}
   839da:	4ab3      	ldr	r2, [pc, #716]	; (83ca8 <.image2.ram.text_12>)
   839dc:	6993      	ldr	r3, [r2, #24]
   839de:	2410      	movs	r4, #16
   839e0:	431c      	orrs	r4, r3
   839e2:	6194      	str	r4, [r2, #24]
   839e4:	6813      	ldr	r3, [r2, #0]
   839e6:	2901      	cmp	r1, #1
   839e8:	d101      	bne.n	839ee <SOCPS_SetWakeEvent+0x16>
   839ea:	4318      	orrs	r0, r3
   839ec:	e001      	b.n	839f2 <SOCPS_SetWakeEvent+0x1a>
   839ee:	4383      	bics	r3, r0
   839f0:	0018      	movs	r0, r3
   839f2:	6010      	str	r0, [r2, #0]
   839f4:	bc10      	pop	{r4}
   839f6:	4770      	bx	lr

000839f8 <SOCPS_SetWakeEventAON>:
   839f8:	4aac      	ldr	r2, [pc, #688]	; (83cac <.image2.ram.text_13>)
   839fa:	6813      	ldr	r3, [r2, #0]
   839fc:	2901      	cmp	r1, #1
   839fe:	d101      	bne.n	83a04 <SOCPS_SetWakeEventAON+0xc>
   83a00:	4318      	orrs	r0, r3
   83a02:	e001      	b.n	83a08 <SOCPS_SetWakeEventAON+0x10>
   83a04:	4383      	bics	r3, r0
   83a06:	0018      	movs	r0, r3
   83a08:	6010      	str	r0, [r2, #0]
   83a0a:	4770      	bx	lr

00083a0c <SOCPS_ClearWakePin>:
   83a0c:	4865      	ldr	r0, [pc, #404]	; (83ba4 <.image2.ram.text_10>)
   83a0e:	6801      	ldr	r1, [r0, #0]
   83a10:	4ac3      	ldr	r2, [pc, #780]	; (83d20 <.image2.ram.text_21>)
   83a12:	400a      	ands	r2, r1
   83a14:	21f0      	movs	r1, #240	; 0xf0
   83a16:	0509      	lsls	r1, r1, #20
   83a18:	4311      	orrs	r1, r2
   83a1a:	6001      	str	r1, [r0, #0]
   83a1c:	4770      	bx	lr

00083a1e <SOCPS_ClearWakeEvent>:
   83a1e:	48c1      	ldr	r0, [pc, #772]	; (83d24 <.image2.ram.text_22>)
   83a20:	6801      	ldr	r1, [r0, #0]
   83a22:	6001      	str	r1, [r0, #0]
   83a24:	6881      	ldr	r1, [r0, #8]
   83a26:	6081      	str	r1, [r0, #8]
   83a28:	20ef      	movs	r0, #239	; 0xef
   83a2a:	f7ff bd9f 	b.w	8356c <SOCPS_AONWakeClear>

00083a2e <SOCPS_AudioLDO>:
   83a2e:	b530      	push	{r4, r5, lr}
   83a30:	b081      	sub	sp, #4
   83a32:	b970      	cbnz	r0, 83a52 <SOCPS_AudioLDO+0x24>
   83a34:	489e      	ldr	r0, [pc, #632]	; (83cb0 <.image2.ram.text_14>)
   83a36:	6801      	ldr	r1, [r0, #0]
   83a38:	4a9e      	ldr	r2, [pc, #632]	; (83cb4 <.image2.ram.text_15>)
   83a3a:	400a      	ands	r2, r1
   83a3c:	6002      	str	r2, [r0, #0]
   83a3e:	0610      	lsls	r0, r2, #24
   83a40:	0e40      	lsrs	r0, r0, #25
   83a42:	49b9      	ldr	r1, [pc, #740]	; (83d28 <.image2.ram.text_23>)
   83a44:	6008      	str	r0, [r1, #0]
   83a46:	489c      	ldr	r0, [pc, #624]	; (83cb8 <.image2.ram.text_16>)
   83a48:	6801      	ldr	r1, [r0, #0]
   83a4a:	2207      	movs	r2, #7
   83a4c:	4391      	bics	r1, r2
   83a4e:	6001      	str	r1, [r0, #0]
   83a50:	e021      	b.n	83a96 <SOCPS_AudioLDO+0x68>
   83a52:	489a      	ldr	r0, [pc, #616]	; (83cbc <.image2.ram.text_17>)
   83a54:	6840      	ldr	r0, [r0, #4]
   83a56:	b9f0      	cbnz	r0, 83a96 <SOCPS_AudioLDO+0x68>
   83a58:	4899      	ldr	r0, [pc, #612]	; (83cc0 <.image2.ram.text_18>)
   83a5a:	6980      	ldr	r0, [r0, #24]
   83a5c:	b1d8      	cbz	r0, 83a96 <SOCPS_AudioLDO+0x68>
   83a5e:	4c94      	ldr	r4, [pc, #592]	; (83cb0 <.image2.ram.text_14>)
   83a60:	6820      	ldr	r0, [r4, #0]
   83a62:	2501      	movs	r5, #1
   83a64:	4028      	ands	r0, r5
   83a66:	d116      	bne.n	83a96 <SOCPS_AudioLDO+0x68>
   83a68:	4893      	ldr	r0, [pc, #588]	; (83cb8 <.image2.ram.text_16>)
   83a6a:	6801      	ldr	r1, [r0, #0]
   83a6c:	2207      	movs	r2, #7
   83a6e:	430a      	orrs	r2, r1
   83a70:	6002      	str	r2, [r0, #0]
   83a72:	6820      	ldr	r0, [r4, #0]
   83a74:	0229      	lsls	r1, r5, #8
   83a76:	4301      	orrs	r1, r0
   83a78:	6021      	str	r1, [r4, #0]
   83a7a:	2005      	movs	r0, #5
   83a7c:	f77d fd21 	bl	14c2 <DelayNop+0xd>
   83a80:	6820      	ldr	r0, [r4, #0]
   83a82:	21fe      	movs	r1, #254	; 0xfe
   83a84:	4388      	bics	r0, r1
   83a86:	49a8      	ldr	r1, [pc, #672]	; (83d28 <.image2.ram.text_23>)
   83a88:	6809      	ldr	r1, [r1, #0]
   83a8a:	0049      	lsls	r1, r1, #1
   83a8c:	4301      	orrs	r1, r0
   83a8e:	6021      	str	r1, [r4, #0]
   83a90:	6820      	ldr	r0, [r4, #0]
   83a92:	4305      	orrs	r5, r0
   83a94:	6025      	str	r5, [r4, #0]
   83a96:	b001      	add	sp, #4
   83a98:	bd30      	pop	{r4, r5, pc}

00083a9a <SOCPS_SWRLDO_Suspend>:
   83a9a:	b410      	push	{r4}
   83a9c:	49a3      	ldr	r1, [pc, #652]	; (83d2c <.image2.ram.text_24>)
   83a9e:	4aa4      	ldr	r2, [pc, #656]	; (83d30 <.image2.ram.text_25>)
   83aa0:	4ba4      	ldr	r3, [pc, #656]	; (83d34 <.image2.ram.text_26>)
   83aa2:	2801      	cmp	r0, #1
   83aa4:	6858      	ldr	r0, [r3, #4]
   83aa6:	d113      	bne.n	83ad0 <SOCPS_SWRLDO_Suspend+0x36>
   83aa8:	4ca3      	ldr	r4, [pc, #652]	; (83d38 <.image2.ram.text_27>)
   83aaa:	4004      	ands	r4, r0
   83aac:	f640 6000 	movw	r0, #3584	; 0xe00
   83ab0:	4320      	orrs	r0, r4
   83ab2:	6058      	str	r0, [r3, #4]
   83ab4:	6818      	ldr	r0, [r3, #0]
   83ab6:	4ca1      	ldr	r4, [pc, #644]	; (83d3c <.image2.ram.text_28>)
   83ab8:	4004      	ands	r4, r0
   83aba:	20c8      	movs	r0, #200	; 0xc8
   83abc:	0240      	lsls	r0, r0, #9
   83abe:	4320      	orrs	r0, r4
   83ac0:	6018      	str	r0, [r3, #0]
   83ac2:	6810      	ldr	r0, [r2, #0]
   83ac4:	4001      	ands	r1, r0
   83ac6:	f244 0000 	movw	r0, #16384	; 0x4000
   83aca:	4308      	orrs	r0, r1
   83acc:	0001      	movs	r1, r0
   83ace:	e00c      	b.n	83aea <SOCPS_SWRLDO_Suspend+0x50>
   83ad0:	4c9b      	ldr	r4, [pc, #620]	; (83d40 <.image2.ram.text_29>)
   83ad2:	4004      	ands	r4, r0
   83ad4:	0c50      	lsrs	r0, r2, #17
   83ad6:	4320      	orrs	r0, r4
   83ad8:	6058      	str	r0, [r3, #4]
   83ada:	6818      	ldr	r0, [r3, #0]
   83adc:	4c99      	ldr	r4, [pc, #612]	; (83d44 <.image2.ram.text_30>)
   83ade:	4004      	ands	r4, r0
   83ae0:	0bd0      	lsrs	r0, r2, #15
   83ae2:	4320      	orrs	r0, r4
   83ae4:	6018      	str	r0, [r3, #0]
   83ae6:	6810      	ldr	r0, [r2, #0]
   83ae8:	4001      	ands	r1, r0
   83aea:	6011      	str	r1, [r2, #0]
   83aec:	bc10      	pop	{r4}
   83aee:	4770      	bx	lr

00083af0 <SOCPS_SleepCG_RAM>:
   83af0:	b5f0      	push	{r4, r5, r6, r7, lr}
   83af2:	b081      	sub	sp, #4
   83af4:	f7ff ff40 	bl	83978 <?Veneer 9 (3) for pinmap_sleep>
   83af8:	2000      	movs	r0, #0
   83afa:	f7ff ff45 	bl	83988 <?Veneer 10 (3) for km4_flash_highspeed_suspend>
   83afe:	4c70      	ldr	r4, [pc, #448]	; (83cc0 <.image2.ram.text_18>)
   83b00:	68e0      	ldr	r0, [r4, #12]
   83b02:	b110      	cbz	r0, 83b0a <SOCPS_SleepCG_RAM+0x1a>
   83b04:	2000      	movs	r0, #0
   83b06:	f7ff ff47 	bl	83998 <?Veneer 11 (3) for SOCPS_OSC2M_Cmd>
   83b0a:	2001      	movs	r0, #1
   83b0c:	f77e fb54 	bl	21b8 <FLASH_Erase+0x71>
   83b10:	2000      	movs	r0, #0
   83b12:	f7ff ff8c 	bl	83a2e <SOCPS_AudioLDO>
   83b16:	4d83      	ldr	r5, [pc, #524]	; (83d24 <.image2.ram.text_22>)
   83b18:	69e8      	ldr	r0, [r5, #28]
   83b1a:	2101      	movs	r1, #1
   83b1c:	4301      	orrs	r1, r0
   83b1e:	61e9      	str	r1, [r5, #28]
   83b20:	4e89      	ldr	r6, [pc, #548]	; (83d48 <.image2.ram.text_31>)
   83b22:	488a      	ldr	r0, [pc, #552]	; (83d4c <.image2.ram.text_32>)
   83b24:	7800      	ldrb	r0, [r0, #0]
   83b26:	b938      	cbnz	r0, 83b38 <SOCPS_SleepCG_RAM+0x48>
   83b28:	6830      	ldr	r0, [r6, #0]
   83b2a:	2180      	movs	r1, #128	; 0x80
   83b2c:	02c9      	lsls	r1, r1, #11
   83b2e:	4301      	orrs	r1, r0
   83b30:	6031      	str	r1, [r6, #0]
   83b32:	200c      	movs	r0, #12
   83b34:	4381      	bics	r1, r0
   83b36:	6031      	str	r1, [r6, #0]
   83b38:	6968      	ldr	r0, [r5, #20]
   83b3a:	2702      	movs	r7, #2
   83b3c:	2101      	movs	r1, #1
   83b3e:	4388      	bics	r0, r1
   83b40:	4338      	orrs	r0, r7
   83b42:	6168      	str	r0, [r5, #20]
   83b44:	2032      	movs	r0, #50	; 0x32
   83b46:	f77d fcbc 	bl	14c2 <DelayNop+0xd>
   83b4a:	6930      	ldr	r0, [r6, #16]
   83b4c:	4307      	orrs	r7, r0
   83b4e:	6137      	str	r7, [r6, #16]
   83b50:	6828      	ldr	r0, [r5, #0]
   83b52:	0680      	lsls	r0, r0, #26
   83b54:	d504      	bpl.n	83b60 <SOCPS_SleepCG_RAM+0x70>
   83b56:	6928      	ldr	r0, [r5, #16]
   83b58:	2180      	movs	r1, #128	; 0x80
   83b5a:	0249      	lsls	r1, r1, #9
   83b5c:	4301      	orrs	r1, r0
   83b5e:	6129      	str	r1, [r5, #16]
   83b60:	487b      	ldr	r0, [pc, #492]	; (83d50 <.image2.ram.text_33>)
   83b62:	2100      	movs	r1, #0
   83b64:	6141      	str	r1, [r0, #20]
   83b66:	f77f ff11 	bl	398c <RTIM_Cmd+0xb1>
   83b6a:	6320      	str	r0, [r4, #48]	; 0x30
   83b6c:	6830      	ldr	r0, [r6, #0]
   83b6e:	2104      	movs	r1, #4
   83b70:	4301      	orrs	r1, r0
   83b72:	6031      	str	r1, [r6, #0]
   83b74:	2000      	movs	r0, #0
   83b76:	f77e fb1f 	bl	21b8 <FLASH_Erase+0x71>
   83b7a:	4874      	ldr	r0, [pc, #464]	; (83d4c <.image2.ram.text_32>)
   83b7c:	7800      	ldrb	r0, [r0, #0]
   83b7e:	b928      	cbnz	r0, 83b8c <SOCPS_SleepCG_RAM+0x9c>
   83b80:	6830      	ldr	r0, [r6, #0]
   83b82:	4974      	ldr	r1, [pc, #464]	; (83d54 <.image2.ram.text_34>)
   83b84:	4001      	ands	r1, r0
   83b86:	2008      	movs	r0, #8
   83b88:	4308      	orrs	r0, r1
   83b8a:	6030      	str	r0, [r6, #0]
   83b8c:	68e0      	ldr	r0, [r4, #12]
   83b8e:	b110      	cbz	r0, 83b96 <SOCPS_SleepCG_RAM+0xa6>
   83b90:	2001      	movs	r0, #1
   83b92:	f7ff ff01 	bl	83998 <?Veneer 11 (3) for SOCPS_OSC2M_Cmd>
   83b96:	2000      	movs	r0, #0
   83b98:	f7ff fcba 	bl	83510 <?Veneer 5 (3) for km4_flash_highspeed_resume>
   83b9c:	f7ff ff04 	bl	839a8 <?Veneer 12 (3) for pinmap_wake>
   83ba0:	b001      	add	sp, #4
   83ba2:	bdf0      	pop	{r4, r5, r6, r7, pc}

00083ba4 <.image2.ram.text_10>:
   83ba4:	48000040 	.word	0x48000040

00083ba8 <SOCPS_SleepPG_RAM>:
   83ba8:	b5f8      	push	{r3, r4, r5, r6, r7, lr}
   83baa:	f7ff fee5 	bl	83978 <?Veneer 9 (3) for pinmap_sleep>
   83bae:	2000      	movs	r0, #0
   83bb0:	f7ff feea 	bl	83988 <?Veneer 10 (3) for km4_flash_highspeed_suspend>
   83bb4:	4842      	ldr	r0, [pc, #264]	; (83cc0 <.image2.ram.text_18>)
   83bb6:	68c0      	ldr	r0, [r0, #12]
   83bb8:	b110      	cbz	r0, 83bc0 <SOCPS_SleepPG_RAM+0x18>
   83bba:	2000      	movs	r0, #0
   83bbc:	f7ff feec 	bl	83998 <?Veneer 11 (3) for SOCPS_OSC2M_Cmd>
   83bc0:	2001      	movs	r0, #1
   83bc2:	f77e faf9 	bl	21b8 <FLASH_Erase+0x71>
   83bc6:	2000      	movs	r0, #0
   83bc8:	f7ff ff31 	bl	83a2e <SOCPS_AudioLDO>
   83bcc:	4e62      	ldr	r6, [pc, #392]	; (83d58 <.image2.ram.text_35>)
   83bce:	68b0      	ldr	r0, [r6, #8]
   83bd0:	2501      	movs	r5, #1
   83bd2:	43ed      	mvns	r5, r5
   83bd4:	4028      	ands	r0, r5
   83bd6:	60b0      	str	r0, [r6, #8]
   83bd8:	f240 3700 	movw	r7, #768	; 0x300
   83bdc:	2200      	movs	r2, #0
   83bde:	0039      	movs	r1, r7
   83be0:	485e      	ldr	r0, [pc, #376]	; (83d5c <.image2.ram.text_36>)
   83be2:	f781 f991 	bl	4f08 <FLASH_Calibration+0x137>
   83be6:	4c58      	ldr	r4, [pc, #352]	; (83d48 <.image2.ram.text_31>)
   83be8:	6820      	ldr	r0, [r4, #0]
   83bea:	2180      	movs	r1, #128	; 0x80
   83bec:	02c9      	lsls	r1, r1, #11
   83bee:	4301      	orrs	r1, r0
   83bf0:	6021      	str	r1, [r4, #0]
   83bf2:	200c      	movs	r0, #12
   83bf4:	4381      	bics	r1, r0
   83bf6:	6021      	str	r1, [r4, #0]
   83bf8:	6830      	ldr	r0, [r6, #0]
   83bfa:	2102      	movs	r1, #2
   83bfc:	4005      	ands	r5, r0
   83bfe:	430d      	orrs	r5, r1
   83c00:	6035      	str	r5, [r6, #0]
   83c02:	bf30      	wfi
   83c04:	bf00      	nop
   83c06:	6920      	ldr	r0, [r4, #16]
   83c08:	4301      	orrs	r1, r0
   83c0a:	6121      	str	r1, [r4, #16]
   83c0c:	6820      	ldr	r0, [r4, #0]
   83c0e:	2104      	movs	r1, #4
   83c10:	4301      	orrs	r1, r0
   83c12:	6021      	str	r1, [r4, #0]
   83c14:	2201      	movs	r2, #1
   83c16:	0039      	movs	r1, r7
   83c18:	4850      	ldr	r0, [pc, #320]	; (83d5c <.image2.ram.text_36>)
   83c1a:	f781 f975 	bl	4f08 <FLASH_Calibration+0x137>
   83c1e:	f7ff fae3 	bl	831e8 <FLASH_Invalidate_Auto_Write>
   83c22:	484f      	ldr	r0, [pc, #316]	; (83d60 <.image2.ram.text_37>)
   83c24:	7900      	ldrb	r0, [r0, #4]
   83c26:	f77e fc5b 	bl	24e0 <FLASH_StructInit+0x8f>
   83c2a:	f000 f84b 	bl	83cc4 <.image2.ram.text_19>
   83c2e:	484d      	ldr	r0, [pc, #308]	; (83d64 <.image2.ram.text_38>)
   83c30:	2200      	movs	r2, #0
   83c32:	6002      	str	r2, [r0, #0]
   83c34:	f000 f846 	bl	83cc4 <.image2.ram.text_19>
   83c38:	494b      	ldr	r1, [pc, #300]	; (83d68 <.image2.ram.text_39>)
   83c3a:	680b      	ldr	r3, [r1, #0]
   83c3c:	2580      	movs	r5, #128	; 0x80
   83c3e:	02ad      	lsls	r5, r5, #10
   83c40:	431d      	orrs	r5, r3
   83c42:	600d      	str	r5, [r1, #0]
   83c44:	f000 f83e 	bl	83cc4 <.image2.ram.text_19>
   83c48:	670a      	str	r2, [r1, #112]	; 0x70
   83c4a:	f3bf 8f4f 	dsb	sy
   83c4e:	6eca      	ldr	r2, [r1, #108]	; 0x6c
   83c50:	0113      	lsls	r3, r2, #4
   83c52:	0c5b      	lsrs	r3, r3, #17
   83c54:	04d5      	lsls	r5, r2, #19
   83c56:	0dad      	lsrs	r5, r5, #22
   83c58:	015f      	lsls	r7, r3, #5
   83c5a:	f643 76e0 	movw	r6, #16352	; 0x3fe0
   83c5e:	403e      	ands	r6, r7
   83c60:	07ef      	lsls	r7, r5, #31
   83c62:	4337      	orrs	r7, r6
   83c64:	6107      	str	r7, [r0, #16]
   83c66:	002e      	movs	r6, r5
   83c68:	1e75      	subs	r5, r6, #1
   83c6a:	2e00      	cmp	r6, #0
   83c6c:	d1f4      	bne.n	83c58 <SOCPS_SleepPG_RAM+0xb0>
   83c6e:	001d      	movs	r5, r3
   83c70:	1e6b      	subs	r3, r5, #1
   83c72:	2d00      	cmp	r5, #0
   83c74:	d1ee      	bne.n	83c54 <SOCPS_SleepPG_RAM+0xac>
   83c76:	f3bf 8f4f 	dsb	sy
   83c7a:	6808      	ldr	r0, [r1, #0]
   83c7c:	2280      	movs	r2, #128	; 0x80
   83c7e:	0252      	lsls	r2, r2, #9
   83c80:	4302      	orrs	r2, r0
   83c82:	600a      	str	r2, [r1, #0]
   83c84:	f000 f81e 	bl	83cc4 <.image2.ram.text_19>
   83c88:	2000      	movs	r0, #0
   83c8a:	f77e fa95 	bl	21b8 <FLASH_Erase+0x71>
   83c8e:	6820      	ldr	r0, [r4, #0]
   83c90:	4930      	ldr	r1, [pc, #192]	; (83d54 <.image2.ram.text_34>)
   83c92:	4001      	ands	r1, r0
   83c94:	2008      	movs	r0, #8
   83c96:	4308      	orrs	r0, r1
   83c98:	6020      	str	r0, [r4, #0]
   83c9a:	f7ff fce9 	bl	83670 <SOCPS_MMUReFill>
   83c9e:	2000      	movs	r0, #0
   83ca0:	f7ff fc36 	bl	83510 <?Veneer 5 (3) for km4_flash_highspeed_resume>
   83ca4:	bdf1      	pop	{r0, r4, r5, r6, r7, pc}
	...

00083ca8 <.image2.ram.text_12>:
   83ca8:	48000300 	.word	0x48000300

00083cac <.image2.ram.text_13>:
   83cac:	48000058 	.word	0x48000058

00083cb0 <.image2.ram.text_14>:
   83cb0:	48000344 	.word	0x48000344

00083cb4 <.image2.ram.text_15>:
   83cb4:	fffffefe 	.word	0xfffffefe

00083cb8 <.image2.ram.text_16>:
   83cb8:	48000280 	.word	0x48000280

00083cbc <.image2.ram.text_17>:
   83cbc:	00083db0 	.word	0x00083db0

00083cc0 <.image2.ram.text_18>:
   83cc0:	0008441c 	.word	0x0008441c

00083cc4 <.image2.ram.text_19>:
   83cc4:	f3bf 8f4f 	dsb	sy
   83cc8:	f3bf 8f6f 	isb	sy
   83ccc:	4770      	bx	lr
	...

00083cd0 <SOCPS_DeepSleep_RAM>:
   83cd0:	b580      	push	{r7, lr}
   83cd2:	4826      	ldr	r0, [pc, #152]	; (83d6c <.image2.ram.text_40>)
   83cd4:	6800      	ldr	r0, [r0, #0]
   83cd6:	0380      	lsls	r0, r0, #14
   83cd8:	d503      	bpl.n	83ce2 <SOCPS_DeepSleep_RAM+0x12>
   83cda:	bf00      	nop
   83cdc:	a026      	add	r0, pc, #152	; (adr r0, 83d78 <.image2.ram.text_43>)
   83cde:	f77c fbc9 	bl	474 <DiagVSprintf+0x35f>
   83ce2:	f7ff fe69 	bl	839b8 <?Veneer 13 (3) for SOCPS_DsleepInit>
   83ce6:	f7ff fe6f 	bl	839c8 <?Veneer 14 (3) for pinmap_deepsleep>
   83cea:	f7ff fe98 	bl	83a1e <SOCPS_ClearWakeEvent>
   83cee:	2001      	movs	r0, #1
   83cf0:	f77e fa62 	bl	21b8 <FLASH_Erase+0x71>
   83cf4:	2090      	movs	r0, #144	; 0x90
   83cf6:	05c0      	lsls	r0, r0, #23
   83cf8:	6941      	ldr	r1, [r0, #20]
   83cfa:	4a1d      	ldr	r2, [pc, #116]	; (83d70 <.image2.ram.text_41>)
   83cfc:	400a      	ands	r2, r1
   83cfe:	0c41      	lsrs	r1, r0, #17
   83d00:	4311      	orrs	r1, r2
   83d02:	6141      	str	r1, [r0, #20]
   83d04:	6801      	ldr	r1, [r0, #0]
   83d06:	4a1b      	ldr	r2, [pc, #108]	; (83d74 <.image2.ram.text_42>)
   83d08:	400a      	ands	r2, r1
   83d0a:	6002      	str	r2, [r0, #0]
   83d0c:	4812      	ldr	r0, [pc, #72]	; (83d58 <.image2.ram.text_35>)
   83d0e:	6801      	ldr	r1, [r0, #0]
   83d10:	2202      	movs	r2, #2
   83d12:	4391      	bics	r1, r2
   83d14:	2201      	movs	r2, #1
   83d16:	430a      	orrs	r2, r1
   83d18:	6002      	str	r2, [r0, #0]
   83d1a:	bf30      	wfi
   83d1c:	bd01      	pop	{r0, pc}
	...

00083d20 <.image2.ram.text_21>:
   83d20:	fffff0ff 	.word	0xfffff0ff

00083d24 <.image2.ram.text_22>:
   83d24:	48000304 	.word	0x48000304

00083d28 <.image2.ram.text_23>:
   83d28:	00089b10 	.word	0x00089b10

00083d2c <.image2.ram.text_24>:
   83d2c:	ffff9fff 	.word	0xffff9fff

00083d30 <.image2.ram.text_25>:
   83d30:	48000224 	.word	0x48000224

00083d34 <.image2.ram.text_26>:
   83d34:	48000010 	.word	0x48000010

00083d38 <.image2.ram.text_27>:
   83d38:	ffffc3ff 	.word	0xffffc3ff

00083d3c <.image2.ram.text_28>:
   83d3c:	ffff0fff 	.word	0xffff0fff

00083d40 <.image2.ram.text_29>:
   83d40:	ffffc1ff 	.word	0xffffc1ff

00083d44 <.image2.ram.text_30>:
   83d44:	fffe0fff 	.word	0xfffe0fff

00083d48 <.image2.ram.text_31>:
   83d48:	48000200 	.word	0x48000200

00083d4c <.image2.ram.text_32>:
   83d4c:	00083de4 	.word	0x00083de4

00083d50 <.image2.ram.text_33>:
   83d50:	48002280 	.word	0x48002280

00083d54 <.image2.ram.text_34>:
   83d54:	fffbffff 	.word	0xfffbffff

00083d58 <.image2.ram.text_35>:
   83d58:	48000318 	.word	0x48000318

00083d5c <.image2.ram.text_36>:
   83d5c:	c0000100 	.word	0xc0000100

00083d60 <.image2.ram.text_37>:
   83d60:	000801f8 	.word	0x000801f8

00083d64 <.image2.ram.text_38>:
   83d64:	e000ef50 	.word	0xe000ef50

00083d68 <.image2.ram.text_39>:
   83d68:	e000ed14 	.word	0xe000ed14

00083d6c <.image2.ram.text_40>:
   83d6c:	000801cc 	.word	0x000801cc

00083d70 <.image2.ram.text_41>:
   83d70:	ffff43ff 	.word	0xffff43ff

00083d74 <.image2.ram.text_42>:
   83d74:	feffffff 	.word	0xfeffffff

00083d78 <.image2.ram.text_43>:
   83d78:	44304d0d 	.word	0x44304d0d
   83d7c:	000a2053 	.word	0x000a2053

00083d80 <?Veneer 4 (3) for TaskIdle_8721D>:
   83d80:	b408      	push	{r3}
   83d82:	4b02      	ldr	r3, [pc, #8]	; (83d8c <?Veneer 4 (3) for TaskIdle_8721D+0xc>)
   83d84:	469c      	mov	ip, r3
   83d86:	bc08      	pop	{r3}
   83d88:	4760      	bx	ip
   83d8a:	46c0      	nop			; (mov r8, r8)
   83d8c:	0c005015 	.word	0x0c005015

00083d90 <app_taskidle_handler>:
   83d90:	f7ff bff6 	b.w	83d80 <?Veneer 4 (3) for TaskIdle_8721D>

00083d94 <xHeapRegions>:
   83d94:	0a00 0008 1600 0000 4770 0008 5000 0000     ........pG...P..
	...

00083dac <uxCriticalNesting>:
   83dac:	aaaa aaaa                                   ....

00083db0 <wifi_config>:
	...
   83db8:	0001 0000 0001 0000                         ........

00083dc0 <__bss_start__>:
   83dc0:	0000 0000                                   ....

00083dc4 <__bss_end__>:
   83dc4:	0000 0000                                   ....

00083dc8 <cal_ok_log>:
   83dc8:	6163 696c 7262 7461 6f69 5f6e 6b6f 5b3a     calibration_ok:[
   83dd8:	6425 253a 3a64 6425 205d 000a               %d:%d:%d] ..

00083de4 <km4_sleep_type>:
   83de4:	0000 0000                                   ....

00083de8 <KM4SleepTick>:
   83de8:	0000 0000                                   ....

00083dec <km4_sleep_timeout>:
   83dec:	ffff ffff                                   ....

00083df0 <km4_wake_event>:
   83df0:	0000 0000                                   ....

00083df4 <SYSPLL_ON_SEQ>:
   83df4:	0208 4800 ff01 ffff 0000 0000 0000 1000     ...H............
   83e04:	0280 4800 ff01 ffff 0000 0000 0003 0000     ...H............
   83e14:	0000 0000 ff03 ffff 0000 0000 0004 0000     ................
   83e24:	0280 4800 ff01 ffff 0000 0000 0004 0000     ...H............
   83e34:	02b0 4800 ff01 ffff 0000 0000 0000 8000     ...H............
   83e44:	0000 0000 ff03 ffff 0000 0000 0004 0000     ................
   83e54:	0264 4800 ff01 ffff 0000 2000 0000 0000     d..H....... ....
   83e64:	02b0 4800 ff01 ffff 0000 0000 0000 6000     ...H...........`
   83e74:	0200 4800 ff01 ffff 0000 0020 0000 0000     ...H...... .....
   83e84:	03f4 4800 ff02 ffff 1000 0000 1000 0000     ...H............
   83e94:	02b0 4800 ff01 ffff 0000 0000 0100 0000     ...H............
   83ea4:	ffff ffff ffff ffff 0000 0000 0000 0000     ................

00083eb4 <SYSPLL_OFF_SEQ>:
   83eb4:	02b0 4800 ff01 ffff 0100 0000 0000 0000     ...H............
   83ec4:	0200 4800 ff01 ffff 0000 0000 0000 0020     ...H.......... .
   83ed4:	0264 4800 ff01 ffff 0000 0000 0000 2000     d..H........... 
   83ee4:	02b0 4800 ff01 ffff 0000 e000 0000 0000     ...H............
   83ef4:	ffff ffff ffff ffff 0000 0000 0000 0000     ................

00083f04 <HSPWR_ON_SEQ>:
   83f04:	021c 4800 ff01 ffff 0011 0000 0000 0000     ...H............
   83f14:	0000 0000 ff08 ffff 0000 0000 0000 0000     ................
   83f24:	0200 4800 ff01 ffff 0000 0000 0002 0000     ...H............
   83f34:	0200 4800 ff01 ffff 0000 0000 0004 0000     ...H............
   83f44:	0000 0000 ff03 ffff 0000 0000 00c8 0000     ................
   83f54:	0200 4800 ff01 ffff 0000 0000 0008 0000     ...H............
   83f64:	0200 4800 ff01 ffff 0000 0006 0000 0000     ...H............
   83f74:	021c 4800 ff01 ffff 0000 0000 0001 0000     ...H............
   83f84:	021c 4800 ff01 ffff 0000 0000 0010 0000     ...H............
   83f94:	021c 4800 ff01 ffff 0000 01ff 0000 0101     ...H............
   83fa4:	021c 4800 ff01 ffff 0000 0000 000e 0000     ...H............
   83fb4:	021c 4800 ff01 ffff 0000 0e00 0000 0000     ...H............
   83fc4:	0b08 4800 ff01 ffff ffff ffff 0000 0000     ...H............
   83fd4:	0314 4800 ff01 ffff 0000 0000 0001 0000     ...H............
   83fe4:	0200 4000 ff01 ffff 0000 0000 0000 0002     ...@............
   83ff4:	0210 4000 ff01 ffff 0000 0000 0000 0002     ...@............
   84004:	ffff ffff ffff ffff 0000 0000 0000 0000     ................

00084014 <HSCLK_GATE_SEQ>:
   84014:	021c 4800 ff01 ffff 0000 0000 0000 0002     ...H............
   84024:	0000 0000 ff03 ffff 0000 0000 0014 0000     ................
   84034:	021c 4800 ff01 ffff 0000 0001 0000 0000     ...H............
   84044:	021c 4800 ff01 ffff 0000 0100 0000 0000     ...H............
   84054:	021c 4800 ff01 ffff 0010 0000 000f 0000     ...H............
   84064:	ffff ffff ffff ffff 0000 0000 0000 0000     ................

00084074 <HSCLK_ON_SEQ>:
   84074:	0b08 4800 ff01 ffff ffff ffff 0000 0000     ...H............
   84084:	021c 4800 ff01 ffff 0000 0000 0010 0000     ...H............
   84094:	021c 4800 ff01 ffff 0000 0000 0000 0100     ...H............
   840a4:	021c 4800 ff01 ffff 0000 0000 0000 0001     ...H............
   840b4:	021c 4800 ff01 ffff 0000 0002 0000 0000     ...H............
   840c4:	ffff ffff ffff ffff 0000 0000 0000 0000     ................

000840d4 <HSPWR_GATE_SEQ>:
   840d4:	0208 4000 ff01 ffff 0002 0000 0000 0000     ...@............
   840e4:	021c 4800 ff01 ffff 0000 0000 0000 0002     ...H............
   840f4:	0000 0000 ff03 ffff 0000 0000 0014 0000     ................
   84104:	021c 4800 ff01 ffff 0000 0001 0000 0000     ...H............
   84114:	021c 4800 ff01 ffff 0000 0100 0000 0000     ...H............
   84124:	021c 4800 ff01 ffff 001f 0000 0001 0000     ...H............
   84134:	ffff ffff ffff ffff 0000 0000 0000 0000     ................

00084144 <HSPWR_WAKE_SEQ>:
   84144:	0b08 4800 ff01 ffff ffff ffff 0000 0000     ...H............
   84154:	0200 4800 ff01 ffff 0000 0000 0004 0000     ...H............
   84164:	0000 0000 ff03 ffff 0000 0000 00c8 0000     ................
   84174:	0200 4800 ff01 ffff 0000 0000 0008 0000     ...H............
   84184:	0200 4800 ff01 ffff 0000 0004 0000 0000     ...H............
   84194:	021c 4800 ff01 ffff 0000 0000 0010 0000     ...H............
   841a4:	021c 4800 ff01 ffff 0000 0000 0000 0100     ...H............
   841b4:	021c 4800 ff01 ffff 0000 0000 0000 0001     ...H............
   841c4:	021c 4800 ff01 ffff 0000 0002 0000 0000     ...H............
   841d4:	021c 4800 ff01 ffff 0000 0000 000e 0000     ...H............
   841e4:	0208 4000 ff01 ffff 0000 0000 0002 0000     ...@............
   841f4:	ffff ffff ffff ffff 0000 0000 0000 0000     ................

00084204 <sleep_wevent_config>:
   84204:	0000 4000 0000 0000 0000 2000 0001 0000     ...@....... ....
   84214:	0000 1000 0000 0000 0000 0800 0000 0000     ................
   84224:	0000 0400 0000 0000 0000 0100 0000 0000     ................
   84234:	0000 0010 0001 0000 0040 0000 0000 0000     ........@.......
   84244:	0020 0000 0001 0000 0010 0000 0000 0000      ...............
   84254:	0004 0000 0000 0000 0002 0000 0000 0000     ................
   84264:	ffff ffff 0000 0000                         ........

0008426c <sleep_aon_wevent_config>:
   8426c:	0080 0000 0001 0000 0040 0000 0001 0000     ........@.......
   8427c:	0010 0000 0001 0000 0008 0000 0000 0000     ................
   8428c:	0004 0000 0000 0000 0002 0000 0001 0000     ................
   8429c:	0001 0000 0001 0000 ffff ffff 0000 0000     ................

000842ac <hs_wakeevent_config>:
   842ac:	0304 0000 0000 4000 0001 0000 0304 0000     .......@........
   842bc:	0000 2000 0000 0000 0304 0000 0000 1000     ... ............
   842cc:	0000 0000 0304 0000 0000 0800 0000 0000     ................
   842dc:	0304 0000 0000 0400 0000 0000 0304 0000     ................
   842ec:	0000 0100 0000 0000 0304 0000 0000 0010     ................
   842fc:	0000 0000 0304 0000 0040 0000 0000 0000     ........@.......
   8430c:	0304 0000 0020 0000 0000 0000 0304 0000     .... ...........
   8431c:	0010 0000 0000 0000 0304 0000 0004 0000     ................
   8432c:	0000 0000 0304 0000 0002 0000 0000 0000     ................
   8433c:	005c 0000 0080 0000 0000 0000 005c 0000     \...........\...
   8434c:	0040 0000 0001 0000 005c 0000 0010 0000     @.......\.......
   8435c:	0001 0000 005c 0000 0008 0000 0000 0000     ....\...........
   8436c:	005c 0000 0004 0000 0001 0000 005c 0000     \...........\...
   8437c:	0002 0000 0000 0000 005c 0000 0001 0000     ........\.......
   8438c:	0001 0000 ffff ffff 0000 0000 0000 0000     ................

0008439c <dsleep_aon_wevent_config>:
   8439c:	0040 0000 0001 0000 0010 0000 0001 0000     @...............
   843ac:	0008 0000 0001 0000 0004 0000 0000 0000     ................
   843bc:	0002 0000 0001 0000 0001 0000 0001 0000     ................
   843cc:	ffff ffff 0000 0000                         ........

000843d4 <aon_wakepin>:
   843d4:	100c 0d14 1511 120e 0f19 1a13               ............

000843e0 <sleep_wakepin_config>:
	...
   843e8:	0001 0000 0000 0000 0000 0000 0001 0000     ................
	...
   84400:	0001 0000 0000 0000 0000 0000 0001 0000     ................
   84410:	ffff ffff 0000 0000 0000 0000               ............

0008441c <ps_config>:
   8441c:	0001 0000 0000 0000 0000 0000 0001 0000     ................
	...
   84434:	0001 0000 0000 0000 0000 0000 0000 0000     ................
	...

00084454 <SystemCoreClock>:
   84454:	2d00 0131                                   .-1.

00084458 <__cmd_table_start__>:
   84458:	0000 0000                                   ....

0008445c <__cmd_table_end__>:
   8445c:	0000 0000                                   ....

00084460 <missing_tick>:
   84460:	0000 0000                                   ....

00084464 <wakelock>:
   84464:	0001 0000                                   ....

00084468 <sleepwakelock_timeout>:
   84468:	0000 0000                                   ....

0008446c <sleep_type>:
   8446c:	0000 0000                                   ....

00084470 <sysactive_timeout_temp>:
   84470:	0000 0000                                   ....

00084474 <sysactive_timeout_flag>:
   84474:	0000 0000                                   ....

00084478 <system_can_yield>:
   84478:	0001 0000                                   ....

0008447c <deepwakelock>:
   8447c:	0001 0000                                   ....

00084480 <deepwakelock_timeout>:
   84480:	0000 0000                                   ....

00084484 <wifi_enable>:
	...

00084485 <wifi_disable>:
	...

00084486 <wifi_first_boot>:
   84486:	0001                                             .

00084487 <wifi_is_enable>:
	...

00084488 <TaskIdle_8721D::PCToggle>:
   84488:	0000 0000                                   ....

0008448c <fw_comm_sema>:
   8448c:	0000 0000                                   ....

00084490 <fw_ipc_cmd_sema>:
   84490:	0000 0000                                   ....

00084494 <km0_pwrmgt_config>:
   84494:	0002 0000 0000 0000 0004 0000 0000 0000     ................
   844a4:	0008 0000 0000 0000 0010 0000 0000 0000     ................
   844b4:	0020 0000 0000 0000 0040 0000 0001 0000      .......@.......
   844c4:	0080 0000 0000 0000 0100 0000 0001 0000     ................
   844d4:	0200 0000 0000 0000 0400 0000 0001 0000     ................
   844e4:	ffff ffff 0000 0000                         ........

000844ec <sleep_hsram_config>:
   844ec:	0000 8000 0000 0000 0000 4000 0000 0000     ...........@....
   844fc:	0000 2000 0000 0000 0000 1000 0001 0000     ... ............
   8450c:	0000 0400 0000 0000 0000 0200 0000 0000     ................
   8451c:	0000 0100 0000 0000 0000 0040 0000 0000     ..........@.....
   8452c:	0000 0020 0000 0000 0000 0010 0000 0000     .. .............
   8453c:	0000 0004 0000 0000 0000 0002 0001 0000     ................
   8454c:	0000 0001 0000 0000 4000 0000 0000 0000     .........@......
   8455c:	2000 0000 0001 0000 1000 0000 0000 0000     . ..............
   8456c:	0400 0000 0000 0000 0200 0000 0001 0000     ................
   8457c:	0100 0000 0000 0000 0040 0000 0000 0000     ........@.......
   8458c:	0020 0000 0000 0000 0010 0000 0000 0000      ...............
   8459c:	0004 0000 0000 0000 0002 0000 0000 0000     ................
   845ac:	0001 0000 0000 0000 ffff ffff 0000 0000     ................

000845bc <sleep_lsram_config>:
   845bc:	0000 0040 0000 0000 0000 0020 0001 0000     ..@....... .....
   845cc:	0000 0010 0000 0000 0000 0008 0001 0000     ................
   845dc:	0000 0004 0001 0000 0000 0002 0000 0000     ................
   845ec:	0000 0001 0000 0000 0040 0000 0000 0000     ........@.......
   845fc:	0020 0000 0000 0000 0010 0000 0000 0000      ...............
   8460c:	0008 0000 0000 0000 0004 0000 0000 0000     ................
   8461c:	0002 0000 0000 0000 0001 0000 0000 0000     ................
   8462c:	ffff ffff 0000 0000                         ........

00084634 <dsleep_lsram_config>:
   84634:	0004 0000 0000 0000 0002 0000 0001 0000     ................
   84644:	0001 0000 0000 0000 ffff ffff 0000 0000     ................

00084654 <ARFB_table>:
   84654:	f01f 0fff 0000 0f00 0ff0 0000 0000 f00f     ................
   84664:	0fff 0000 0f00 0ff0 0000 0000 f010 0fff     ................
   84674:	0000 1000 0ff0 0000 0000 0ff5 0000 0000     ................
   84684:	f000 000f 0000 0000 000d 0000 0000 1000     ................
   84694:	fff0 00ff 0000 f010 003f 0000 0000 0000     ........?.......

000846a4 <RATE_UP_FAIL_WAITING>:
   846a4:	0402 1008 1410 1c18 201c 2020 1410 1c18     .........   ....
   846b4:	201c 2020                                   .   

000846b8 <PT_PENALTY>:
   846b8:	0619 0204 1800 0000                         ........

000846c0 <DIFF2VAR_TABLE>:
   846c0:	0706 0908 0b0a 0d0c 0e0e 0000               ............

000846cc <RATE_DOWN_PROB>:
   846cc:	3232 3224 4332 434b 434b 594b 3232 4b43     22$22CKCKCKY22CK
   846dc:	4b43 5a59                                   CKYZ

000846e0 <RATE_DOWN_PROB_SGI2LGI>:
   846e0:	3232 3224 4332 434b 434b 594b 5858 5858     22$22CKCKCKYXXXX
   846f0:	5858 5858                                   XXXX

000846f4 <RATE_UP_PROB>:
   846f4:	5352 5554 5453 5655 5857 5a59 5756 5958     RSTUSTUVWXYZVWXY
   84704:	5b5a 5d5c                                   Z[\]

00084708 <DROPING_NECESSARY>:
   84708:	0101 0101 0201 0403 0605 0807 0201 0403     ................
   84718:	0605 0807                                   ....

0008471c <TRYING_NECESSARY_idx>:
   8471c:	0000 0100 0000 0101 0201 0302 0100 0101     ................
   8472c:	0201 0302                                   ....

00084730 <NormalFWCmdTable>:
   84730:	13b8 0c01 0000 0000 aa51 0c00 1200 0c01     ........Q.......
   84740:	13bc 0c01 0004 0000 a951 0c00 1228 0c01     ........Q...(...
   84750:	13c0 0c01 0004 0000 ab81 0c00 1298 0c01     ................
   84760:	13c4 0c01 0008 0000 accd 0c00 12f0 0c01     ................

Disassembly of section A4:

0c000020 <os_heap_init>:
 c000020:	4801      	ldr	r0, [pc, #4]	; (c000028 <??os_heap_init_0>)
 c000022:	f000 b88a 	b.w	c00013a <vPortDefineHeapRegions>
 c000026:	bf00      	nop

0c000028 <??os_heap_init_0>:
 c000028:	3d94 0008                                   .=..

0c00002c <pvPortMalloc>:
 c00002c:	b5f8      	push	{r3, r4, r5, r6, r7, lr}
 c00002e:	0005      	movs	r5, r0
 c000030:	2400      	movs	r4, #0
 c000032:	2700      	movs	r7, #0
 c000034:	f000 f99e 	bl	c000374 <vTaskSuspendAll>
 c000038:	4959      	ldr	r1, [pc, #356]	; (c0001a0 <??DataTable6>)
 c00003a:	6948      	ldr	r0, [r1, #20]
 c00003c:	4028      	ands	r0, r5
 c00003e:	d13c      	bne.n	c0000ba <??pvPortMalloc_0>
 c000040:	2d00      	cmp	r5, #0
 c000042:	d03a      	beq.n	c0000ba <??pvPortMalloc_0>
 c000044:	0028      	movs	r0, r5
 c000046:	3020      	adds	r0, #32
 c000048:	4285      	cmp	r5, r0
 c00004a:	d236      	bcs.n	c0000ba <??pvPortMalloc_0>
 c00004c:	221f      	movs	r2, #31
 c00004e:	4210      	tst	r0, r2
 c000050:	d006      	beq.n	c000060 <??pvPortMalloc_1>
 c000052:	0003      	movs	r3, r0
 c000054:	3320      	adds	r3, #32
 c000056:	4002      	ands	r2, r0
 c000058:	1a9a      	subs	r2, r3, r2
 c00005a:	4290      	cmp	r0, r2
 c00005c:	d22d      	bcs.n	c0000ba <??pvPortMalloc_0>
 c00005e:	0010      	movs	r0, r2

0c000060 <??pvPortMalloc_1>:
 c000060:	b358      	cbz	r0, c0000ba <??pvPortMalloc_0>
 c000062:	68ca      	ldr	r2, [r1, #12]
 c000064:	4282      	cmp	r2, r0
 c000066:	d328      	bcc.n	c0000ba <??pvPortMalloc_0>
 c000068:	680e      	ldr	r6, [r1, #0]
 c00006a:	e001      	b.n	c000070 <??pvPortMalloc_2>

0c00006c <??pvPortMalloc_3>:
 c00006c:	0031      	movs	r1, r6
 c00006e:	0016      	movs	r6, r2

0c000070 <??pvPortMalloc_2>:
 c000070:	6872      	ldr	r2, [r6, #4]
 c000072:	4282      	cmp	r2, r0
 c000074:	d202      	bcs.n	c00007c <??pvPortMalloc_4>
 c000076:	6832      	ldr	r2, [r6, #0]
 c000078:	2a00      	cmp	r2, #0
 c00007a:	d1f7      	bne.n	c00006c <??pvPortMalloc_3>

0c00007c <??pvPortMalloc_4>:
 c00007c:	4d48      	ldr	r5, [pc, #288]	; (c0001a0 <??DataTable6>)
 c00007e:	68aa      	ldr	r2, [r5, #8]
 c000080:	4296      	cmp	r6, r2
 c000082:	d01a      	beq.n	c0000ba <??pvPortMalloc_0>
 c000084:	680f      	ldr	r7, [r1, #0]
 c000086:	3720      	adds	r7, #32
 c000088:	6832      	ldr	r2, [r6, #0]
 c00008a:	600a      	str	r2, [r1, #0]
 c00008c:	6871      	ldr	r1, [r6, #4]
 c00008e:	1a09      	subs	r1, r1, r0
 c000090:	2941      	cmp	r1, #65	; 0x41
 c000092:	d305      	bcc.n	c0000a0 <??pvPortMalloc_5>
 c000094:	1d32      	adds	r2, r6, #4
 c000096:	5011      	str	r1, [r2, r0]
 c000098:	6070      	str	r0, [r6, #4]
 c00009a:	1830      	adds	r0, r6, r0
 c00009c:	f000 f82a 	bl	c0000f4 <prvInsertBlockIntoFreeList>

0c0000a0 <??pvPortMalloc_5>:
 c0000a0:	6870      	ldr	r0, [r6, #4]
 c0000a2:	68e9      	ldr	r1, [r5, #12]
 c0000a4:	1a09      	subs	r1, r1, r0
 c0000a6:	692a      	ldr	r2, [r5, #16]
 c0000a8:	4291      	cmp	r1, r2
 c0000aa:	d800      	bhi.n	c0000ae <??pvPortMalloc_6>
 c0000ac:	000a      	movs	r2, r1

0c0000ae <??pvPortMalloc_6>:
 c0000ae:	612a      	str	r2, [r5, #16]
 c0000b0:	60e9      	str	r1, [r5, #12]
 c0000b2:	6969      	ldr	r1, [r5, #20]
 c0000b4:	4301      	orrs	r1, r0
 c0000b6:	6071      	str	r1, [r6, #4]
 c0000b8:	6034      	str	r4, [r6, #0]

0c0000ba <??pvPortMalloc_0>:
 c0000ba:	f000 f972 	bl	c0003a2 <xTaskResumeAll>
 c0000be:	0038      	movs	r0, r7
 c0000c0:	bdf2      	pop	{r1, r4, r5, r6, r7, pc}

0c0000c2 <vPortFree>:
 c0000c2:	b538      	push	{r3, r4, r5, lr}
 c0000c4:	0004      	movs	r4, r0
 c0000c6:	d014      	beq.n	c0000f2 <??vPortFree_0>
 c0000c8:	3c20      	subs	r4, #32
 c0000ca:	6860      	ldr	r0, [r4, #4]
 c0000cc:	4d34      	ldr	r5, [pc, #208]	; (c0001a0 <??DataTable6>)
 c0000ce:	6969      	ldr	r1, [r5, #20]
 c0000d0:	4208      	tst	r0, r1
 c0000d2:	d00e      	beq.n	c0000f2 <??vPortFree_0>
 c0000d4:	6822      	ldr	r2, [r4, #0]
 c0000d6:	b962      	cbnz	r2, c0000f2 <??vPortFree_0>
 c0000d8:	4388      	bics	r0, r1
 c0000da:	6060      	str	r0, [r4, #4]
 c0000dc:	f000 f94a 	bl	c000374 <vTaskSuspendAll>
 c0000e0:	68e8      	ldr	r0, [r5, #12]
 c0000e2:	6861      	ldr	r1, [r4, #4]
 c0000e4:	1840      	adds	r0, r0, r1
 c0000e6:	60e8      	str	r0, [r5, #12]
 c0000e8:	0020      	movs	r0, r4
 c0000ea:	f000 f803 	bl	c0000f4 <prvInsertBlockIntoFreeList>
 c0000ee:	f000 f958 	bl	c0003a2 <xTaskResumeAll>

0c0000f2 <??vPortFree_0>:
 c0000f2:	bd31      	pop	{r0, r4, r5, pc}

0c0000f4 <prvInsertBlockIntoFreeList>:
 c0000f4:	b530      	push	{r4, r5, lr}
 c0000f6:	492a      	ldr	r1, [pc, #168]	; (c0001a0 <??DataTable6>)
 c0000f8:	000a      	movs	r2, r1
 c0000fa:	e000      	b.n	c0000fe <??prvInsertBlockIntoFreeList_0>

0c0000fc <??prvInsertBlockIntoFreeList_1>:
 c0000fc:	001a      	movs	r2, r3

0c0000fe <??prvInsertBlockIntoFreeList_0>:
 c0000fe:	6813      	ldr	r3, [r2, #0]
 c000100:	4283      	cmp	r3, r0
 c000102:	d3fb      	bcc.n	c0000fc <??prvInsertBlockIntoFreeList_1>
 c000104:	6853      	ldr	r3, [r2, #4]
 c000106:	18d4      	adds	r4, r2, r3
 c000108:	4284      	cmp	r4, r0
 c00010a:	d103      	bne.n	c000114 <??prvInsertBlockIntoFreeList_2>
 c00010c:	6840      	ldr	r0, [r0, #4]
 c00010e:	1818      	adds	r0, r3, r0
 c000110:	6050      	str	r0, [r2, #4]
 c000112:	0010      	movs	r0, r2

0c000114 <??prvInsertBlockIntoFreeList_2>:
 c000114:	6843      	ldr	r3, [r0, #4]
 c000116:	6814      	ldr	r4, [r2, #0]
 c000118:	18c5      	adds	r5, r0, r3
 c00011a:	42a5      	cmp	r5, r4
 c00011c:	d108      	bne.n	c000130 <??prvInsertBlockIntoFreeList_3>
 c00011e:	6889      	ldr	r1, [r1, #8]
 c000120:	428c      	cmp	r4, r1
 c000122:	d004      	beq.n	c00012e <??prvInsertBlockIntoFreeList_4>
 c000124:	6861      	ldr	r1, [r4, #4]
 c000126:	1859      	adds	r1, r3, r1
 c000128:	6041      	str	r1, [r0, #4]
 c00012a:	6824      	ldr	r4, [r4, #0]
 c00012c:	e000      	b.n	c000130 <??prvInsertBlockIntoFreeList_3>

0c00012e <??prvInsertBlockIntoFreeList_4>:
 c00012e:	000c      	movs	r4, r1

0c000130 <??prvInsertBlockIntoFreeList_3>:
 c000130:	6004      	str	r4, [r0, #0]
 c000132:	4282      	cmp	r2, r0
 c000134:	d000      	beq.n	c000138 <??prvInsertBlockIntoFreeList_5>
 c000136:	6010      	str	r0, [r2, #0]

0c000138 <??prvInsertBlockIntoFreeList_5>:
 c000138:	bd30      	pop	{r4, r5, pc}

0c00013a <vPortDefineHeapRegions>:
 c00013a:	b5f8      	push	{r3, r4, r5, r6, r7, lr}
 c00013c:	0001      	movs	r1, r0
 c00013e:	2200      	movs	r2, #0
 c000140:	2300      	movs	r3, #0
 c000142:	000c      	movs	r4, r1
 c000144:	4816      	ldr	r0, [pc, #88]	; (c0001a0 <??DataTable6>)
 c000146:	6880      	ldr	r0, [r0, #8]
 c000148:	9100      	str	r1, [sp, #0]
 c00014a:	e01e      	b.n	c00018a <??vPortDefineHeapRegions_0>

0c00014c <??vPortDefineHeapRegions_1>:
 c00014c:	6821      	ldr	r1, [r4, #0]
 c00014e:	000f      	movs	r7, r1
 c000150:	06fc      	lsls	r4, r7, #27
 c000152:	d004      	beq.n	c00015e <??vPortDefineHeapRegions_2>
 c000154:	371f      	adds	r7, #31
 c000156:	241f      	movs	r4, #31
 c000158:	43a7      	bics	r7, r4
 c00015a:	1bf4      	subs	r4, r6, r7
 c00015c:	1866      	adds	r6, r4, r1

0c00015e <??vPortDefineHeapRegions_2>:
 c00015e:	2500      	movs	r5, #0
 c000160:	b913      	cbnz	r3, c000168 <??vPortDefineHeapRegions_3>
 c000162:	4c0f      	ldr	r4, [pc, #60]	; (c0001a0 <??DataTable6>)
 c000164:	6027      	str	r7, [r4, #0]
 c000166:	6065      	str	r5, [r4, #4]

0c000168 <??vPortDefineHeapRegions_3>:
 c000168:	0004      	movs	r4, r0
 c00016a:	19b8      	adds	r0, r7, r6
 c00016c:	3820      	subs	r0, #32
 c00016e:	261f      	movs	r6, #31
 c000170:	43b0      	bics	r0, r6
 c000172:	6045      	str	r5, [r0, #4]
 c000174:	6005      	str	r5, [r0, #0]
 c000176:	1bc5      	subs	r5, r0, r7
 c000178:	607d      	str	r5, [r7, #4]
 c00017a:	6038      	str	r0, [r7, #0]
 c00017c:	b104      	cbz	r4, c000180 <??vPortDefineHeapRegions_4>
 c00017e:	6027      	str	r7, [r4, #0]

0c000180 <??vPortDefineHeapRegions_4>:
 c000180:	1952      	adds	r2, r2, r5
 c000182:	1c5b      	adds	r3, r3, #1
 c000184:	9900      	ldr	r1, [sp, #0]
 c000186:	00dc      	lsls	r4, r3, #3
 c000188:	190c      	adds	r4, r1, r4

0c00018a <??vPortDefineHeapRegions_0>:
 c00018a:	6866      	ldr	r6, [r4, #4]
 c00018c:	2e00      	cmp	r6, #0
 c00018e:	d1dd      	bne.n	c00014c <??vPortDefineHeapRegions_1>
 c000190:	4903      	ldr	r1, [pc, #12]	; (c0001a0 <??DataTable6>)
 c000192:	6088      	str	r0, [r1, #8]
 c000194:	610a      	str	r2, [r1, #16]
 c000196:	60ca      	str	r2, [r1, #12]
 c000198:	2080      	movs	r0, #128	; 0x80
 c00019a:	0600      	lsls	r0, r0, #24
 c00019c:	6148      	str	r0, [r1, #20]
 c00019e:	bdf1      	pop	{r0, r4, r5, r6, r7, pc}

0c0001a0 <??DataTable6>:
 c0001a0:	9770 0008                                   p...

0c0001a4 <xTaskCreate>:
 c0001a4:	b5f9      	push	{r0, r3, r4, r5, r6, r7, lr}
 c0001a6:	b083      	sub	sp, #12
 c0001a8:	000f      	movs	r7, r1
 c0001aa:	0015      	movs	r5, r2
 c0001ac:	00a8      	lsls	r0, r5, #2
 c0001ae:	f7ff ff3d 	bl	c00002c <pvPortMalloc>
 c0001b2:	0006      	movs	r6, r0
 c0001b4:	d028      	beq.n	c000208 <??xTaskCreate_0>
 c0001b6:	205c      	movs	r0, #92	; 0x5c
 c0001b8:	f7ff ff38 	bl	c00002c <pvPortMalloc>
 c0001bc:	0004      	movs	r4, r0
 c0001be:	d020      	beq.n	c000202 <??xTaskCreate_1>
 c0001c0:	9701      	str	r7, [sp, #4]
 c0001c2:	6326      	str	r6, [r4, #48]	; 0x30
 c0001c4:	980a      	ldr	r0, [sp, #40]	; 0x28
 c0001c6:	9000      	str	r0, [sp, #0]
 c0001c8:	22a5      	movs	r2, #165	; 0xa5
 c0001ca:	00a9      	lsls	r1, r5, #2
 c0001cc:	6b20      	ldr	r0, [r4, #48]	; 0x30
 c0001ce:	f000 fb61 	bl	c000894 <__iar_small_Memset4_word>
 c0001d2:	6b20      	ldr	r0, [r4, #48]	; 0x30
 c0001d4:	00a9      	lsls	r1, r5, #2
 c0001d6:	1845      	adds	r5, r0, r1
 c0001d8:	1f2d      	subs	r5, r5, #4
 c0001da:	201f      	movs	r0, #31
 c0001dc:	4385      	bics	r5, r0
 c0001de:	6425      	str	r5, [r4, #64]	; 0x40
 c0001e0:	2600      	movs	r6, #0
 c0001e2:	9801      	ldr	r0, [sp, #4]
 c0001e4:	b1a0      	cbz	r0, c000210 <??xTaskCreate_2>
 c0001e6:	2100      	movs	r1, #0

0c0001e8 <??xTaskCreate_3>:
 c0001e8:	1842      	adds	r2, r0, r1
 c0001ea:	7813      	ldrb	r3, [r2, #0]
 c0001ec:	0027      	movs	r7, r4
 c0001ee:	3734      	adds	r7, #52	; 0x34
 c0001f0:	547b      	strb	r3, [r7, r1]
 c0001f2:	2300      	movs	r3, #0
 c0001f4:	56d2      	ldrsb	r2, [r2, r3]
 c0001f6:	b112      	cbz	r2, c0001fe <??xTaskCreate_4>
 c0001f8:	1c49      	adds	r1, r1, #1
 c0001fa:	290a      	cmp	r1, #10
 c0001fc:	d3f4      	bcc.n	c0001e8 <??xTaskCreate_3>

0c0001fe <??xTaskCreate_4>:
 c0001fe:	213d      	movs	r1, #61	; 0x3d
 c000200:	e007      	b.n	c000212 <??xTaskCreate_5>

0c000202 <??xTaskCreate_1>:
 c000202:	0030      	movs	r0, r6
 c000204:	f7ff ff5d 	bl	c0000c2 <vPortFree>

0c000208 <??xTaskCreate_0>:
 c000208:	2000      	movs	r0, #0
 c00020a:	43c0      	mvns	r0, r0

0c00020c <??xTaskCreate_6>:
 c00020c:	b005      	add	sp, #20
 c00020e:	bdf0      	pop	{r4, r5, r6, r7, pc}

0c000210 <??xTaskCreate_2>:
 c000210:	2134      	movs	r1, #52	; 0x34

0c000212 <??xTaskCreate_5>:
 c000212:	5466      	strb	r6, [r4, r1]
 c000214:	9800      	ldr	r0, [sp, #0]
 c000216:	280a      	cmp	r0, #10
 c000218:	d901      	bls.n	c00021e <??xTaskCreate_7>
 c00021a:	200a      	movs	r0, #10
 c00021c:	9000      	str	r0, [sp, #0]

0c00021e <??xTaskCreate_7>:
 c00021e:	9800      	ldr	r0, [sp, #0]
 c000220:	62e0      	str	r0, [r4, #44]	; 0x2c
 c000222:	9800      	ldr	r0, [sp, #0]
 c000224:	64e0      	str	r0, [r4, #76]	; 0x4c
 c000226:	6526      	str	r6, [r4, #80]	; 0x50
 c000228:	1d20      	adds	r0, r4, #4
 c00022a:	f000 fb48 	bl	c0008be <vListInitialiseItem>
 c00022e:	0020      	movs	r0, r4
 c000230:	3018      	adds	r0, #24
 c000232:	f000 fb44 	bl	c0008be <vListInitialiseItem>
 c000236:	6124      	str	r4, [r4, #16]
 c000238:	200b      	movs	r0, #11
 c00023a:	9900      	ldr	r1, [sp, #0]
 c00023c:	1a40      	subs	r0, r0, r1
 c00023e:	61a0      	str	r0, [r4, #24]
 c000240:	6264      	str	r4, [r4, #36]	; 0x24
 c000242:	6566      	str	r6, [r4, #84]	; 0x54
 c000244:	2000      	movs	r0, #0
 c000246:	2158      	movs	r1, #88	; 0x58
 c000248:	5460      	strb	r0, [r4, r1]
 c00024a:	9a04      	ldr	r2, [sp, #16]
 c00024c:	9903      	ldr	r1, [sp, #12]
 c00024e:	0028      	movs	r0, r5
 c000250:	f000 fb82 	bl	c000958 <pxPortInitialiseStack>
 c000254:	6020      	str	r0, [r4, #0]
 c000256:	980b      	ldr	r0, [sp, #44]	; 0x2c
 c000258:	b100      	cbz	r0, c00025c <??xTaskCreate_8>
 c00025a:	6004      	str	r4, [r0, #0]

0c00025c <??xTaskCreate_8>:
 c00025c:	f000 fbb2 	bl	c0009c4 <vPortEnterCritical>
 c000260:	4d2e      	ldr	r5, [pc, #184]	; (c00031c <??DataTable10>)
 c000262:	6ce8      	ldr	r0, [r5, #76]	; 0x4c
 c000264:	1c40      	adds	r0, r0, #1
 c000266:	64e8      	str	r0, [r5, #76]	; 0x4c
 c000268:	4f2d      	ldr	r7, [pc, #180]	; (c000320 <??DataTable10_1>)
 c00026a:	6aa8      	ldr	r0, [r5, #40]	; 0x28
 c00026c:	bb20      	cbnz	r0, c0002b8 <??xTaskCreate_9>
 c00026e:	62ac      	str	r4, [r5, #40]	; 0x28
 c000270:	6ce8      	ldr	r0, [r5, #76]	; 0x4c
 c000272:	2801      	cmp	r0, #1
 c000274:	d128      	bne.n	c0002c8 <??xTaskCreate_10>

0c000276 <??xTaskCreate_11>:
 c000276:	2014      	movs	r0, #20
 c000278:	4370      	muls	r0, r6
 c00027a:	1838      	adds	r0, r7, r0
 c00027c:	f000 fb10 	bl	c0008a0 <vListInitialise>
 c000280:	1c76      	adds	r6, r6, #1
 c000282:	2e0a      	cmp	r6, #10
 c000284:	d9f7      	bls.n	c000276 <??xTaskCreate_11>
 c000286:	0028      	movs	r0, r5
 c000288:	3074      	adds	r0, #116	; 0x74
 c00028a:	f000 fb09 	bl	c0008a0 <vListInitialise>
 c00028e:	002e      	movs	r6, r5
 c000290:	3688      	adds	r6, #136	; 0x88
 c000292:	0030      	movs	r0, r6
 c000294:	f000 fb04 	bl	c0008a0 <vListInitialise>
 c000298:	0028      	movs	r0, r5
 c00029a:	f000 fb01 	bl	c0008a0 <vListInitialise>
 c00029e:	0028      	movs	r0, r5
 c0002a0:	3014      	adds	r0, #20
 c0002a2:	f000 fafd 	bl	c0008a0 <vListInitialise>
 c0002a6:	0028      	movs	r0, r5
 c0002a8:	3038      	adds	r0, #56	; 0x38
 c0002aa:	f000 faf9 	bl	c0008a0 <vListInitialise>
 c0002ae:	0028      	movs	r0, r5
 c0002b0:	3074      	adds	r0, #116	; 0x74
 c0002b2:	62e8      	str	r0, [r5, #44]	; 0x2c
 c0002b4:	632e      	str	r6, [r5, #48]	; 0x30
 c0002b6:	e007      	b.n	c0002c8 <??xTaskCreate_10>

0c0002b8 <??xTaskCreate_9>:
 c0002b8:	6da8      	ldr	r0, [r5, #88]	; 0x58
 c0002ba:	b928      	cbnz	r0, c0002c8 <??xTaskCreate_10>
 c0002bc:	6ae0      	ldr	r0, [r4, #44]	; 0x2c
 c0002be:	6aa9      	ldr	r1, [r5, #40]	; 0x28
 c0002c0:	6ac9      	ldr	r1, [r1, #44]	; 0x2c
 c0002c2:	4288      	cmp	r0, r1
 c0002c4:	d300      	bcc.n	c0002c8 <??xTaskCreate_10>
 c0002c6:	62ac      	str	r4, [r5, #40]	; 0x28

0c0002c8 <??xTaskCreate_10>:
 c0002c8:	6ea9      	ldr	r1, [r5, #104]	; 0x68
 c0002ca:	1c49      	adds	r1, r1, #1
 c0002cc:	6461      	str	r1, [r4, #68]	; 0x44
 c0002ce:	6ae0      	ldr	r0, [r4, #44]	; 0x2c
 c0002d0:	6d6a      	ldr	r2, [r5, #84]	; 0x54
 c0002d2:	4282      	cmp	r2, r0
 c0002d4:	d200      	bcs.n	c0002d8 <??xTaskCreate_12>
 c0002d6:	6568      	str	r0, [r5, #84]	; 0x54

0c0002d8 <??xTaskCreate_12>:
 c0002d8:	66a9      	str	r1, [r5, #104]	; 0x68
 c0002da:	1d21      	adds	r1, r4, #4
 c0002dc:	2214      	movs	r2, #20
 c0002de:	4350      	muls	r0, r2
 c0002e0:	1838      	adds	r0, r7, r0
 c0002e2:	f000 faef 	bl	c0008c4 <vListInsertEnd>
 c0002e6:	f000 fb79 	bl	c0009dc <vPortExitCritical>
 c0002ea:	6da8      	ldr	r0, [r5, #88]	; 0x58
 c0002ec:	b120      	cbz	r0, c0002f8 <??xTaskCreate_13>
 c0002ee:	f000 fa9d 	bl	c00082c <?Subroutine6>

0c0002f2 <??CrossCallReturnLabel_19>:
 c0002f2:	d201      	bcs.n	c0002f8 <??xTaskCreate_13>
 c0002f4:	f000 fb60 	bl	c0009b8 <vPortYield>

0c0002f8 <??xTaskCreate_13>:
 c0002f8:	2001      	movs	r0, #1
 c0002fa:	e787      	b.n	c00020c <??xTaskCreate_6>

0c0002fc <vTaskDelay>:
 c0002fc:	b580      	push	{r7, lr}
 c0002fe:	b148      	cbz	r0, c000314 <??vTaskDelay_0>
 c000300:	4906      	ldr	r1, [pc, #24]	; (c00031c <??DataTable10>)
 c000302:	6f0a      	ldr	r2, [r1, #112]	; 0x70
 c000304:	1c52      	adds	r2, r2, #1
 c000306:	670a      	str	r2, [r1, #112]	; 0x70
 c000308:	2100      	movs	r1, #0
 c00030a:	f000 fa94 	bl	c000836 <prvAddCurrentTaskToDelayedList>
 c00030e:	f000 f848 	bl	c0003a2 <xTaskResumeAll>
 c000312:	b908      	cbnz	r0, c000318 <??vTaskDelay_1>

0c000314 <??vTaskDelay_0>:
 c000314:	f000 fb50 	bl	c0009b8 <vPortYield>

0c000318 <??vTaskDelay_1>:
 c000318:	bd01      	pop	{r0, pc}
	...

0c00031c <??DataTable10>:
 c00031c:	9820 0008                                    ...

0c000320 <??DataTable10_1>:
 c000320:	98c0 0008                                   ....

0c000324 <?Subroutine3>:
 c000324:	0028      	movs	r0, r5

0c000326 <??Subroutine3_0>:
 c000326:	3018      	adds	r0, #24
 c000328:	f000 baf2 	b.w	c000910 <uxListRemove>

0c00032c <vTaskStartScheduler>:
 c00032c:	b51c      	push	{r2, r3, r4, lr}
 c00032e:	4c67      	ldr	r4, [pc, #412]	; (c0004cc <??DataTable22>)
 c000330:	0020      	movs	r0, r4
 c000332:	309c      	adds	r0, #156	; 0x9c
 c000334:	9001      	str	r0, [sp, #4]
 c000336:	2000      	movs	r0, #0
 c000338:	9000      	str	r0, [sp, #0]
 c00033a:	2300      	movs	r3, #0
 c00033c:	f240 2200 	movw	r2, #512	; 0x200
 c000340:	a10a      	add	r1, pc, #40	; (adr r1, c00036c <?_0>)
 c000342:	4886      	ldr	r0, [pc, #536]	; (c00055c <??DataTable25>)
 c000344:	f7ff ff2e 	bl	c0001a4 <xTaskCreate>
 c000348:	2801      	cmp	r0, #1
 c00034a:	d101      	bne.n	c000350 <??vTaskStartScheduler_0>
 c00034c:	f000 fb86 	bl	c000a5c <xTimerCreateTimerTask>

0c000350 <??vTaskStartScheduler_0>:
 c000350:	2801      	cmp	r0, #1
 c000352:	d109      	bne.n	c000368 <??vTaskStartScheduler_1>
 c000354:	b672      	cpsid	i
 c000356:	2000      	movs	r0, #0
 c000358:	43c0      	mvns	r0, r0
 c00035a:	66e0      	str	r0, [r4, #108]	; 0x6c
 c00035c:	2001      	movs	r0, #1
 c00035e:	65a0      	str	r0, [r4, #88]	; 0x58
 c000360:	2000      	movs	r0, #0
 c000362:	6520      	str	r0, [r4, #80]	; 0x50
 c000364:	f000 fb08 	bl	c000978 <xPortStartScheduler>

0c000368 <??vTaskStartScheduler_1>:
 c000368:	bd13      	pop	{r0, r1, r4, pc}
	...

0c00036c <?_0>:
 c00036c:	4449 454c 0000 0000                         IDLE....

0c000374 <vTaskSuspendAll>:
 c000374:	4875      	ldr	r0, [pc, #468]	; (c00054c <??DataTable24>)
 c000376:	6f01      	ldr	r1, [r0, #112]	; 0x70
 c000378:	1c49      	adds	r1, r1, #1
 c00037a:	6701      	str	r1, [r0, #112]	; 0x70
 c00037c:	4770      	bx	lr

0c00037e <prvGetExpectedIdleTime>:
 c00037e:	2000      	movs	r0, #0
 c000380:	2100      	movs	r1, #0
 c000382:	4a72      	ldr	r2, [pc, #456]	; (c00054c <??DataTable24>)
 c000384:	6d53      	ldr	r3, [r2, #84]	; 0x54
 c000386:	b103      	cbz	r3, c00038a <??prvGetExpectedIdleTime_0>
 c000388:	2101      	movs	r1, #1

0c00038a <??prvGetExpectedIdleTime_0>:
 c00038a:	6a93      	ldr	r3, [r2, #40]	; 0x28
 c00038c:	6adb      	ldr	r3, [r3, #44]	; 0x2c
 c00038e:	b93b      	cbnz	r3, c0003a0 <??prvGetExpectedIdleTime_1>
 c000390:	4b92      	ldr	r3, [pc, #584]	; (c0005dc <??DataTable28>)
 c000392:	681b      	ldr	r3, [r3, #0]
 c000394:	2b01      	cmp	r3, #1
 c000396:	d803      	bhi.n	c0003a0 <??prvGetExpectedIdleTime_1>
 c000398:	b911      	cbnz	r1, c0003a0 <??prvGetExpectedIdleTime_1>
 c00039a:	6ed0      	ldr	r0, [r2, #108]	; 0x6c
 c00039c:	6d11      	ldr	r1, [r2, #80]	; 0x50
 c00039e:	1a40      	subs	r0, r0, r1

0c0003a0 <??prvGetExpectedIdleTime_1>:
 c0003a0:	4770      	bx	lr

0c0003a2 <xTaskResumeAll>:
 c0003a2:	b5f8      	push	{r3, r4, r5, r6, r7, lr}
 c0003a4:	2700      	movs	r7, #0
 c0003a6:	2600      	movs	r6, #0
 c0003a8:	9700      	str	r7, [sp, #0]
 c0003aa:	f000 fb0b 	bl	c0009c4 <vPortEnterCritical>
 c0003ae:	4c67      	ldr	r4, [pc, #412]	; (c00054c <??DataTable24>)
 c0003b0:	6f20      	ldr	r0, [r4, #112]	; 0x70
 c0003b2:	1e40      	subs	r0, r0, #1
 c0003b4:	6720      	str	r0, [r4, #112]	; 0x70
 c0003b6:	6f20      	ldr	r0, [r4, #112]	; 0x70
 c0003b8:	bb68      	cbnz	r0, c000416 <??xTaskResumeAll_0>
 c0003ba:	6ce0      	ldr	r0, [r4, #76]	; 0x4c
 c0003bc:	b9b0      	cbnz	r0, c0003ec <??xTaskResumeAll_1>
 c0003be:	e02a      	b.n	c000416 <??xTaskResumeAll_0>

0c0003c0 <??xTaskResumeAll_2>:
 c0003c0:	68e0      	ldr	r0, [r4, #12]
 c0003c2:	68c6      	ldr	r6, [r0, #12]
 c0003c4:	0030      	movs	r0, r6
 c0003c6:	f7ff ffae 	bl	c000326 <??Subroutine3_0>

0c0003ca <??CrossCallReturnLabel_8>:
 c0003ca:	1d30      	adds	r0, r6, #4
 c0003cc:	f000 faa0 	bl	c000910 <uxListRemove>
 c0003d0:	6af0      	ldr	r0, [r6, #44]	; 0x2c
 c0003d2:	6d61      	ldr	r1, [r4, #84]	; 0x54
 c0003d4:	4281      	cmp	r1, r0
 c0003d6:	d200      	bcs.n	c0003da <??xTaskResumeAll_3>
 c0003d8:	6560      	str	r0, [r4, #84]	; 0x54

0c0003da <??xTaskResumeAll_3>:
 c0003da:	1d31      	adds	r1, r6, #4
 c0003dc:	f000 f8f7 	bl	c0005ce <?Subroutine9>

0c0003e0 <??CrossCallReturnLabel_31>:
 c0003e0:	6af0      	ldr	r0, [r6, #44]	; 0x2c
 c0003e2:	6aa1      	ldr	r1, [r4, #40]	; 0x28
 c0003e4:	6ac9      	ldr	r1, [r1, #44]	; 0x2c
 c0003e6:	4288      	cmp	r0, r1
 c0003e8:	d300      	bcc.n	c0003ec <??xTaskResumeAll_1>
 c0003ea:	6625      	str	r5, [r4, #96]	; 0x60

0c0003ec <??xTaskResumeAll_1>:
 c0003ec:	2501      	movs	r5, #1
 c0003ee:	6820      	ldr	r0, [r4, #0]
 c0003f0:	2800      	cmp	r0, #0
 c0003f2:	d1e5      	bne.n	c0003c0 <??xTaskResumeAll_2>
 c0003f4:	b10e      	cbz	r6, c0003fa <??xTaskResumeAll_4>
 c0003f6:	f000 f96e 	bl	c0006d6 <prvResetNextTaskUnblockTime>

0c0003fa <??xTaskResumeAll_4>:
 c0003fa:	6de6      	ldr	r6, [r4, #92]	; 0x5c
 c0003fc:	b136      	cbz	r6, c00040c <??xTaskResumeAll_5>

0c0003fe <??xTaskResumeAll_6>:
 c0003fe:	f000 f817 	bl	c000430 <xTaskIncrementTick>
 c000402:	b100      	cbz	r0, c000406 <??xTaskResumeAll_7>
 c000404:	6625      	str	r5, [r4, #96]	; 0x60

0c000406 <??xTaskResumeAll_7>:
 c000406:	1e76      	subs	r6, r6, #1
 c000408:	d1f9      	bne.n	c0003fe <??xTaskResumeAll_6>
 c00040a:	65e7      	str	r7, [r4, #92]	; 0x5c

0c00040c <??xTaskResumeAll_5>:
 c00040c:	6e20      	ldr	r0, [r4, #96]	; 0x60
 c00040e:	b110      	cbz	r0, c000416 <??xTaskResumeAll_0>
 c000410:	9500      	str	r5, [sp, #0]
 c000412:	f000 fad1 	bl	c0009b8 <vPortYield>

0c000416 <??xTaskResumeAll_0>:
 c000416:	f000 fae1 	bl	c0009dc <vPortExitCritical>
 c00041a:	9800      	ldr	r0, [sp, #0]
 c00041c:	bdf2      	pop	{r1, r4, r5, r6, r7, pc}

0c00041e <xTaskGetTickCount>:
 c00041e:	e7ff      	b.n	c000420 <?Subroutine1>

0c000420 <?Subroutine1>:
 c000420:	484a      	ldr	r0, [pc, #296]	; (c00054c <??DataTable24>)
 c000422:	6d00      	ldr	r0, [r0, #80]	; 0x50
 c000424:	4770      	bx	lr

0c000426 <vTaskStepTick>:
 c000426:	4949      	ldr	r1, [pc, #292]	; (c00054c <??DataTable24>)
 c000428:	6d0a      	ldr	r2, [r1, #80]	; 0x50
 c00042a:	1810      	adds	r0, r2, r0
 c00042c:	6508      	str	r0, [r1, #80]	; 0x50
 c00042e:	4770      	bx	lr

0c000430 <xTaskIncrementTick>:
 c000430:	b5f8      	push	{r3, r4, r5, r6, r7, lr}
 c000432:	2600      	movs	r6, #0
 c000434:	4c25      	ldr	r4, [pc, #148]	; (c0004cc <??DataTable22>)
 c000436:	6f20      	ldr	r0, [r4, #112]	; 0x70
 c000438:	2800      	cmp	r0, #0
 c00043a:	d13f      	bne.n	c0004bc <??xTaskIncrementTick_0>
 c00043c:	6d27      	ldr	r7, [r4, #80]	; 0x50
 c00043e:	1c7f      	adds	r7, r7, #1
 c000440:	6527      	str	r7, [r4, #80]	; 0x50
 c000442:	d108      	bne.n	c000456 <??xTaskIncrementTick_1>
 c000444:	6ae0      	ldr	r0, [r4, #44]	; 0x2c
 c000446:	6b21      	ldr	r1, [r4, #48]	; 0x30
 c000448:	62e1      	str	r1, [r4, #44]	; 0x2c
 c00044a:	6320      	str	r0, [r4, #48]	; 0x30
 c00044c:	6e60      	ldr	r0, [r4, #100]	; 0x64
 c00044e:	1c40      	adds	r0, r0, #1
 c000450:	6660      	str	r0, [r4, #100]	; 0x64
 c000452:	f000 f940 	bl	c0006d6 <prvResetNextTaskUnblockTime>

0c000456 <??xTaskIncrementTick_1>:
 c000456:	6ee0      	ldr	r0, [r4, #108]	; 0x6c
 c000458:	4287      	cmp	r7, r0
 c00045a:	d325      	bcc.n	c0004a8 <??xTaskIncrementTick_2>
 c00045c:	e01d      	b.n	c00049a <??xTaskIncrementTick_3>

0c00045e <??xTaskIncrementTick_4>:
 c00045e:	6ae0      	ldr	r0, [r4, #44]	; 0x2c
 c000460:	68c0      	ldr	r0, [r0, #12]
 c000462:	68c5      	ldr	r5, [r0, #12]
 c000464:	6868      	ldr	r0, [r5, #4]
 c000466:	4287      	cmp	r7, r0
 c000468:	d31d      	bcc.n	c0004a6 <??xTaskIncrementTick_5>
 c00046a:	f000 f8ad 	bl	c0005c8 <?Subroutine11>

0c00046e <??CrossCallReturnLabel_36>:
 c00046e:	6aa8      	ldr	r0, [r5, #40]	; 0x28
 c000470:	b108      	cbz	r0, c000476 <??CrossCallReturnLabel_11>
 c000472:	f7ff ff57 	bl	c000324 <?Subroutine3>

0c000476 <??CrossCallReturnLabel_11>:
 c000476:	6aeb      	ldr	r3, [r5, #44]	; 0x2c
 c000478:	6d60      	ldr	r0, [r4, #84]	; 0x54
 c00047a:	4298      	cmp	r0, r3
 c00047c:	d200      	bcs.n	c000480 <??xTaskIncrementTick_6>
 c00047e:	6563      	str	r3, [r4, #84]	; 0x54

0c000480 <??xTaskIncrementTick_6>:
 c000480:	1d29      	adds	r1, r5, #4
 c000482:	4856      	ldr	r0, [pc, #344]	; (c0005dc <??DataTable28>)
 c000484:	2214      	movs	r2, #20
 c000486:	4353      	muls	r3, r2
 c000488:	18c0      	adds	r0, r0, r3
 c00048a:	f000 fa1b 	bl	c0008c4 <vListInsertEnd>
 c00048e:	6ae8      	ldr	r0, [r5, #44]	; 0x2c
 c000490:	6aa1      	ldr	r1, [r4, #40]	; 0x28
 c000492:	6ac9      	ldr	r1, [r1, #44]	; 0x2c
 c000494:	4288      	cmp	r0, r1
 c000496:	d300      	bcc.n	c00049a <??xTaskIncrementTick_3>
 c000498:	2601      	movs	r6, #1

0c00049a <??xTaskIncrementTick_3>:
 c00049a:	6ae0      	ldr	r0, [r4, #44]	; 0x2c
 c00049c:	6800      	ldr	r0, [r0, #0]
 c00049e:	2800      	cmp	r0, #0
 c0004a0:	d1dd      	bne.n	c00045e <??xTaskIncrementTick_4>
 c0004a2:	2000      	movs	r0, #0
 c0004a4:	43c0      	mvns	r0, r0

0c0004a6 <??xTaskIncrementTick_5>:
 c0004a6:	66e0      	str	r0, [r4, #108]	; 0x6c

0c0004a8 <??xTaskIncrementTick_2>:
 c0004a8:	6aa1      	ldr	r1, [r4, #40]	; 0x28
 c0004aa:	484c      	ldr	r0, [pc, #304]	; (c0005dc <??DataTable28>)
 c0004ac:	6ac9      	ldr	r1, [r1, #44]	; 0x2c
 c0004ae:	2214      	movs	r2, #20
 c0004b0:	4351      	muls	r1, r2
 c0004b2:	5840      	ldr	r0, [r0, r1]
 c0004b4:	2802      	cmp	r0, #2
 c0004b6:	d304      	bcc.n	c0004c2 <??xTaskIncrementTick_7>
 c0004b8:	2601      	movs	r6, #1
 c0004ba:	e002      	b.n	c0004c2 <??xTaskIncrementTick_7>

0c0004bc <??xTaskIncrementTick_0>:
 c0004bc:	6de0      	ldr	r0, [r4, #92]	; 0x5c
 c0004be:	1c40      	adds	r0, r0, #1
 c0004c0:	65e0      	str	r0, [r4, #92]	; 0x5c

0c0004c2 <??xTaskIncrementTick_7>:
 c0004c2:	6e20      	ldr	r0, [r4, #96]	; 0x60
 c0004c4:	b100      	cbz	r0, c0004c8 <??xTaskIncrementTick_8>
 c0004c6:	2601      	movs	r6, #1

0c0004c8 <??xTaskIncrementTick_8>:
 c0004c8:	0030      	movs	r0, r6
 c0004ca:	bdf2      	pop	{r1, r4, r5, r6, r7, pc}

0c0004cc <??DataTable22>:
 c0004cc:	9820 0008                                    ...

0c0004d0 <vTaskSwitchContext>:
 c0004d0:	b510      	push	{r4, lr}
 c0004d2:	4c1e      	ldr	r4, [pc, #120]	; (c00054c <??DataTable24>)
 c0004d4:	6f20      	ldr	r0, [r4, #112]	; 0x70
 c0004d6:	b110      	cbz	r0, c0004de <??vTaskSwitchContext_0>
 c0004d8:	2001      	movs	r0, #1
 c0004da:	6620      	str	r0, [r4, #96]	; 0x60
 c0004dc:	bd10      	pop	{r4, pc}

0c0004de <??vTaskSwitchContext_0>:
 c0004de:	6620      	str	r0, [r4, #96]	; 0x60
 c0004e0:	6aa0      	ldr	r0, [r4, #40]	; 0x28
 c0004e2:	6b00      	ldr	r0, [r0, #48]	; 0x30
 c0004e4:	4976      	ldr	r1, [pc, #472]	; (c0006c0 <??DataTable35>)
 c0004e6:	6802      	ldr	r2, [r0, #0]
 c0004e8:	428a      	cmp	r2, r1
 c0004ea:	d108      	bne.n	c0004fe <??vTaskSwitchContext_1>
 c0004ec:	6842      	ldr	r2, [r0, #4]
 c0004ee:	428a      	cmp	r2, r1
 c0004f0:	d105      	bne.n	c0004fe <??vTaskSwitchContext_1>
 c0004f2:	6882      	ldr	r2, [r0, #8]
 c0004f4:	428a      	cmp	r2, r1
 c0004f6:	d102      	bne.n	c0004fe <??vTaskSwitchContext_1>
 c0004f8:	68c0      	ldr	r0, [r0, #12]
 c0004fa:	4288      	cmp	r0, r1
 c0004fc:	d005      	beq.n	c00050a <??vTaskSwitchContext_2>

0c0004fe <??vTaskSwitchContext_1>:
 c0004fe:	6aa0      	ldr	r0, [r4, #40]	; 0x28
 c000500:	0001      	movs	r1, r0
 c000502:	3134      	adds	r1, #52	; 0x34
 c000504:	6aa0      	ldr	r0, [r4, #40]	; 0x28
 c000506:	f000 fa83 	bl	c000a10 <vApplicationStackOverflowHook>

0c00050a <??vTaskSwitchContext_2>:
 c00050a:	6d60      	ldr	r0, [r4, #84]	; 0x54
 c00050c:	e000      	b.n	c000510 <??vTaskSwitchContext_3>

0c00050e <??vTaskSwitchContext_4>:
 c00050e:	1e40      	subs	r0, r0, #1

0c000510 <??vTaskSwitchContext_3>:
 c000510:	4932      	ldr	r1, [pc, #200]	; (c0005dc <??DataTable28>)
 c000512:	2214      	movs	r2, #20
 c000514:	4342      	muls	r2, r0
 c000516:	1889      	adds	r1, r1, r2
 c000518:	680a      	ldr	r2, [r1, #0]
 c00051a:	2a00      	cmp	r2, #0
 c00051c:	d0f7      	beq.n	c00050e <??vTaskSwitchContext_4>
 c00051e:	684a      	ldr	r2, [r1, #4]
 c000520:	6852      	ldr	r2, [r2, #4]
 c000522:	604a      	str	r2, [r1, #4]
 c000524:	000b      	movs	r3, r1
 c000526:	3308      	adds	r3, #8
 c000528:	429a      	cmp	r2, r3
 c00052a:	d101      	bne.n	c000530 <??vTaskSwitchContext_5>
 c00052c:	6852      	ldr	r2, [r2, #4]
 c00052e:	604a      	str	r2, [r1, #4]

0c000530 <??vTaskSwitchContext_5>:
 c000530:	6849      	ldr	r1, [r1, #4]
 c000532:	68c9      	ldr	r1, [r1, #12]
 c000534:	62a1      	str	r1, [r4, #40]	; 0x28
 c000536:	6560      	str	r0, [r4, #84]	; 0x54
 c000538:	bd10      	pop	{r4, pc}

0c00053a <vTaskPlaceOnEventList>:
 c00053a:	b510      	push	{r4, lr}
 c00053c:	000c      	movs	r4, r1
 c00053e:	4903      	ldr	r1, [pc, #12]	; (c00054c <??DataTable24>)
 c000540:	6a89      	ldr	r1, [r1, #40]	; 0x28
 c000542:	3118      	adds	r1, #24
 c000544:	f000 f9ca 	bl	c0008dc <vListInsert>
 c000548:	e002      	b.n	c000550 <?Subroutine0>
	...

0c00054c <??DataTable24>:
 c00054c:	9820 0008                                    ...

0c000550 <?Subroutine0>:
 c000550:	2101      	movs	r1, #1
 c000552:	0020      	movs	r0, r4
 c000554:	f000 f96f 	bl	c000836 <prvAddCurrentTaskToDelayedList>
 c000558:	bd10      	pop	{r4, pc}
	...

0c00055c <??DataTable25>:
 c00055c:	064f 0c00                                   O...

0c000560 <vTaskPlaceOnEventListRestricted>:
 c000560:	b538      	push	{r3, r4, r5, lr}
 c000562:	000c      	movs	r4, r1
 c000564:	0015      	movs	r5, r2
 c000566:	4969      	ldr	r1, [pc, #420]	; (c00070c <??DataTable38>)
 c000568:	6a89      	ldr	r1, [r1, #40]	; 0x28
 c00056a:	3118      	adds	r1, #24
 c00056c:	f000 f9aa 	bl	c0008c4 <vListInsertEnd>
 c000570:	b10d      	cbz	r5, c000576 <??vTaskPlaceOnEventListRestricted_0>
 c000572:	2400      	movs	r4, #0
 c000574:	43e4      	mvns	r4, r4

0c000576 <??vTaskPlaceOnEventListRestricted_0>:
 c000576:	0029      	movs	r1, r5
 c000578:	0020      	movs	r0, r4
 c00057a:	f000 f95c 	bl	c000836 <prvAddCurrentTaskToDelayedList>
 c00057e:	bd31      	pop	{r0, r4, r5, pc}

0c000580 <xTaskRemoveFromEventList>:
 c000580:	b538      	push	{r3, r4, r5, lr}
 c000582:	68c0      	ldr	r0, [r0, #12]
 c000584:	68c5      	ldr	r5, [r0, #12]
 c000586:	f7ff fecd 	bl	c000324 <?Subroutine3>

0c00058a <??CrossCallReturnLabel_10>:
 c00058a:	4c60      	ldr	r4, [pc, #384]	; (c00070c <??DataTable38>)
 c00058c:	6f20      	ldr	r0, [r4, #112]	; 0x70
 c00058e:	b960      	cbnz	r0, c0005aa <??xTaskRemoveFromEventList_0>
 c000590:	f000 f81a 	bl	c0005c8 <?Subroutine11>

0c000594 <??CrossCallReturnLabel_35>:
 c000594:	6ae8      	ldr	r0, [r5, #44]	; 0x2c
 c000596:	6d61      	ldr	r1, [r4, #84]	; 0x54
 c000598:	4281      	cmp	r1, r0
 c00059a:	d200      	bcs.n	c00059e <??xTaskRemoveFromEventList_1>
 c00059c:	6560      	str	r0, [r4, #84]	; 0x54

0c00059e <??xTaskRemoveFromEventList_1>:
 c00059e:	1d29      	adds	r1, r5, #4
 c0005a0:	f000 f815 	bl	c0005ce <?Subroutine9>

0c0005a4 <??CrossCallReturnLabel_30>:
 c0005a4:	f000 f897 	bl	c0006d6 <prvResetNextTaskUnblockTime>
 c0005a8:	e004      	b.n	c0005b4 <??xTaskRemoveFromEventList_2>

0c0005aa <??xTaskRemoveFromEventList_0>:
 c0005aa:	0029      	movs	r1, r5
 c0005ac:	3118      	adds	r1, #24
 c0005ae:	0020      	movs	r0, r4
 c0005b0:	f000 f988 	bl	c0008c4 <vListInsertEnd>

0c0005b4 <??xTaskRemoveFromEventList_2>:
 c0005b4:	6aa0      	ldr	r0, [r4, #40]	; 0x28
 c0005b6:	6ac0      	ldr	r0, [r0, #44]	; 0x2c
 c0005b8:	6ae9      	ldr	r1, [r5, #44]	; 0x2c
 c0005ba:	4288      	cmp	r0, r1
 c0005bc:	d202      	bcs.n	c0005c4 <??xTaskRemoveFromEventList_3>
 c0005be:	2001      	movs	r0, #1
 c0005c0:	6620      	str	r0, [r4, #96]	; 0x60
 c0005c2:	bd32      	pop	{r1, r4, r5, pc}

0c0005c4 <??xTaskRemoveFromEventList_3>:
 c0005c4:	2000      	movs	r0, #0
 c0005c6:	bd32      	pop	{r1, r4, r5, pc}

0c0005c8 <?Subroutine11>:
 c0005c8:	1d28      	adds	r0, r5, #4
 c0005ca:	f000 b9a1 	b.w	c000910 <uxListRemove>

0c0005ce <?Subroutine9>:
 c0005ce:	4a03      	ldr	r2, [pc, #12]	; (c0005dc <??DataTable28>)
 c0005d0:	2314      	movs	r3, #20
 c0005d2:	4358      	muls	r0, r3
 c0005d4:	1810      	adds	r0, r2, r0
 c0005d6:	f000 b975 	b.w	c0008c4 <vListInsertEnd>
	...

0c0005dc <??DataTable28>:
 c0005dc:	98c0 0008                                   ....

0c0005e0 <vTaskInternalSetTimeOutState>:
 c0005e0:	494a      	ldr	r1, [pc, #296]	; (c00070c <??DataTable38>)
 c0005e2:	6e4a      	ldr	r2, [r1, #100]	; 0x64
 c0005e4:	6002      	str	r2, [r0, #0]
 c0005e6:	6d09      	ldr	r1, [r1, #80]	; 0x50
 c0005e8:	6041      	str	r1, [r0, #4]
 c0005ea:	4770      	bx	lr

0c0005ec <xTaskCheckForTimeOut>:
 c0005ec:	b5fe      	push	{r1, r2, r3, r4, r5, r6, r7, lr}
 c0005ee:	0005      	movs	r5, r0
 c0005f0:	000c      	movs	r4, r1
 c0005f2:	f000 f9e7 	bl	c0009c4 <vPortEnterCritical>
 c0005f6:	4a45      	ldr	r2, [pc, #276]	; (c00070c <??DataTable38>)
 c0005f8:	6d10      	ldr	r0, [r2, #80]	; 0x50
 c0005fa:	9002      	str	r0, [sp, #8]
 c0005fc:	6868      	ldr	r0, [r5, #4]
 c0005fe:	9001      	str	r0, [sp, #4]
 c000600:	9802      	ldr	r0, [sp, #8]
 c000602:	9901      	ldr	r1, [sp, #4]
 c000604:	1a40      	subs	r0, r0, r1
 c000606:	9000      	str	r0, [sp, #0]
 c000608:	6823      	ldr	r3, [r4, #0]
 c00060a:	2000      	movs	r0, #0
 c00060c:	2100      	movs	r1, #0
 c00060e:	43c9      	mvns	r1, r1
 c000610:	428b      	cmp	r3, r1
 c000612:	d010      	beq.n	c000636 <??xTaskCheckForTimeOut_0>
 c000614:	6e56      	ldr	r6, [r2, #100]	; 0x64
 c000616:	682f      	ldr	r7, [r5, #0]
 c000618:	42be      	cmp	r6, r7
 c00061a:	d003      	beq.n	c000624 <??xTaskCheckForTimeOut_1>
 c00061c:	9e02      	ldr	r6, [sp, #8]
 c00061e:	9f01      	ldr	r7, [sp, #4]
 c000620:	42be      	cmp	r6, r7
 c000622:	d20b      	bcs.n	c00063c <??xTaskCheckForTimeOut_2>

0c000624 <??xTaskCheckForTimeOut_1>:
 c000624:	9e00      	ldr	r6, [sp, #0]
 c000626:	429e      	cmp	r6, r3
 c000628:	d207      	bcs.n	c00063a <??xTaskCheckForTimeOut_3>
 c00062a:	1b99      	subs	r1, r3, r6
 c00062c:	6021      	str	r1, [r4, #0]
 c00062e:	6e51      	ldr	r1, [r2, #100]	; 0x64
 c000630:	6029      	str	r1, [r5, #0]
 c000632:	6d11      	ldr	r1, [r2, #80]	; 0x50
 c000634:	6069      	str	r1, [r5, #4]

0c000636 <??xTaskCheckForTimeOut_0>:
 c000636:	2400      	movs	r4, #0
 c000638:	e001      	b.n	c00063e <??xTaskCheckForTimeOut_4>

0c00063a <??xTaskCheckForTimeOut_3>:
 c00063a:	6020      	str	r0, [r4, #0]

0c00063c <??xTaskCheckForTimeOut_2>:
 c00063c:	2401      	movs	r4, #1

0c00063e <??xTaskCheckForTimeOut_4>:
 c00063e:	f000 f9cd 	bl	c0009dc <vPortExitCritical>
 c000642:	0020      	movs	r0, r4
 c000644:	bdfe      	pop	{r1, r2, r3, r4, r5, r6, r7, pc}

0c000646 <vTaskMissedYield>:
 c000646:	2001      	movs	r0, #1
 c000648:	4930      	ldr	r1, [pc, #192]	; (c00070c <??DataTable38>)
 c00064a:	6608      	str	r0, [r1, #96]	; 0x60
 c00064c:	4770      	bx	lr

0c00064e <prvIdleTask>:
 c00064e:	b538      	push	{r3, r4, r5, lr}
 c000650:	4c2e      	ldr	r4, [pc, #184]	; (c00070c <??DataTable38>)
 c000652:	e010      	b.n	c000676 <??prvIdleTask_0>

0c000654 <??prvIdleTask_1>:
 c000654:	f000 f9b6 	bl	c0009c4 <vPortEnterCritical>
 c000658:	6a20      	ldr	r0, [r4, #32]
 c00065a:	68c5      	ldr	r5, [r0, #12]
 c00065c:	f7ff ffb4 	bl	c0005c8 <?Subroutine11>

0c000660 <??CrossCallReturnLabel_38>:
 c000660:	6ce0      	ldr	r0, [r4, #76]	; 0x4c
 c000662:	1e40      	subs	r0, r0, #1
 c000664:	64e0      	str	r0, [r4, #76]	; 0x4c
 c000666:	6b60      	ldr	r0, [r4, #52]	; 0x34
 c000668:	1e40      	subs	r0, r0, #1
 c00066a:	6360      	str	r0, [r4, #52]	; 0x34
 c00066c:	f000 f9b6 	bl	c0009dc <vPortExitCritical>
 c000670:	0028      	movs	r0, r5
 c000672:	f000 f827 	bl	c0006c4 <prvDeleteTCB>

0c000676 <??prvIdleTask_0>:
 c000676:	6b60      	ldr	r0, [r4, #52]	; 0x34
 c000678:	2800      	cmp	r0, #0
 c00067a:	d1eb      	bne.n	c000654 <??prvIdleTask_1>
 c00067c:	f000 f9c5 	bl	c000a0a <vApplicationIdleHook>
 c000680:	f7ff fe7d 	bl	c00037e <prvGetExpectedIdleTime>
 c000684:	2802      	cmp	r0, #2
 c000686:	d3f6      	bcc.n	c000676 <??prvIdleTask_0>
 c000688:	6f20      	ldr	r0, [r4, #112]	; 0x70
 c00068a:	1c40      	adds	r0, r0, #1
 c00068c:	6720      	str	r0, [r4, #112]	; 0x70
 c00068e:	f7ff fe76 	bl	c00037e <prvGetExpectedIdleTime>
 c000692:	2802      	cmp	r0, #2
 c000694:	d301      	bcc.n	c00069a <??prvIdleTask_2>
 c000696:	f000 fc99 	bl	c000fcc <vPortSuppressTicksAndSleep>

0c00069a <??prvIdleTask_2>:
 c00069a:	f7ff fe82 	bl	c0003a2 <xTaskResumeAll>
 c00069e:	e7ea      	b.n	c000676 <??prvIdleTask_0>

0c0006a0 <eTaskConfirmSleepModeStatus>:
 c0006a0:	2001      	movs	r0, #1
 c0006a2:	491a      	ldr	r1, [pc, #104]	; (c00070c <??DataTable38>)
 c0006a4:	680a      	ldr	r2, [r1, #0]
 c0006a6:	b90a      	cbnz	r2, c0006ac <??eTaskConfirmSleepModeStatus_0>
 c0006a8:	6e0a      	ldr	r2, [r1, #96]	; 0x60
 c0006aa:	b10a      	cbz	r2, c0006b0 <??eTaskConfirmSleepModeStatus_1>

0c0006ac <??eTaskConfirmSleepModeStatus_0>:
 c0006ac:	2000      	movs	r0, #0
 c0006ae:	4770      	bx	lr

0c0006b0 <??eTaskConfirmSleepModeStatus_1>:
 c0006b0:	6b8a      	ldr	r2, [r1, #56]	; 0x38
 c0006b2:	1c52      	adds	r2, r2, #1
 c0006b4:	6cc9      	ldr	r1, [r1, #76]	; 0x4c
 c0006b6:	428a      	cmp	r2, r1
 c0006b8:	d100      	bne.n	c0006bc <??eTaskConfirmSleepModeStatus_2>
 c0006ba:	2002      	movs	r0, #2

0c0006bc <??eTaskConfirmSleepModeStatus_2>:
 c0006bc:	4770      	bx	lr
	...

0c0006c0 <??DataTable35>:
 c0006c0:	a5a5 a5a5                                   ....

0c0006c4 <prvDeleteTCB>:
 c0006c4:	b510      	push	{r4, lr}
 c0006c6:	0004      	movs	r4, r0
 c0006c8:	6b20      	ldr	r0, [r4, #48]	; 0x30
 c0006ca:	f7ff fcfa 	bl	c0000c2 <vPortFree>
 c0006ce:	0020      	movs	r0, r4
 c0006d0:	f7ff fcf7 	bl	c0000c2 <vPortFree>
 c0006d4:	bd10      	pop	{r4, pc}

0c0006d6 <prvResetNextTaskUnblockTime>:
 c0006d6:	480d      	ldr	r0, [pc, #52]	; (c00070c <??DataTable38>)
 c0006d8:	6ac1      	ldr	r1, [r0, #44]	; 0x2c
 c0006da:	6809      	ldr	r1, [r1, #0]
 c0006dc:	b911      	cbnz	r1, c0006e4 <??prvResetNextTaskUnblockTime_0>
 c0006de:	2100      	movs	r1, #0
 c0006e0:	43c9      	mvns	r1, r1
 c0006e2:	e003      	b.n	c0006ec <??prvResetNextTaskUnblockTime_1>

0c0006e4 <??prvResetNextTaskUnblockTime_0>:
 c0006e4:	6ac1      	ldr	r1, [r0, #44]	; 0x2c
 c0006e6:	68c9      	ldr	r1, [r1, #12]
 c0006e8:	68c9      	ldr	r1, [r1, #12]
 c0006ea:	6849      	ldr	r1, [r1, #4]

0c0006ec <??prvResetNextTaskUnblockTime_1>:
 c0006ec:	66c1      	str	r1, [r0, #108]	; 0x6c
 c0006ee:	4770      	bx	lr

0c0006f0 <xTaskGetCurrentTaskHandle>:
 c0006f0:	484c      	ldr	r0, [pc, #304]	; (c000824 <??DataTable46>)
 c0006f2:	6a80      	ldr	r0, [r0, #40]	; 0x28
 c0006f4:	4770      	bx	lr

0c0006f6 <xTaskGetSchedulerState>:
 c0006f6:	484b      	ldr	r0, [pc, #300]	; (c000824 <??DataTable46>)
 c0006f8:	6d81      	ldr	r1, [r0, #88]	; 0x58
 c0006fa:	b909      	cbnz	r1, c000700 <??xTaskGetSchedulerState_0>
 c0006fc:	2001      	movs	r0, #1
 c0006fe:	4770      	bx	lr

0c000700 <??xTaskGetSchedulerState_0>:
 c000700:	6f00      	ldr	r0, [r0, #112]	; 0x70
 c000702:	b908      	cbnz	r0, c000708 <??xTaskGetSchedulerState_1>
 c000704:	2002      	movs	r0, #2
 c000706:	4770      	bx	lr

0c000708 <??xTaskGetSchedulerState_1>:
 c000708:	2000      	movs	r0, #0
 c00070a:	4770      	bx	lr

0c00070c <??DataTable38>:
 c00070c:	9820 0008                                    ...

0c000710 <xTaskPriorityInherit>:
 c000710:	b570      	push	{r4, r5, r6, lr}
 c000712:	0005      	movs	r5, r0
 c000714:	2000      	movs	r0, #0
 c000716:	b35d      	cbz	r5, c000770 <??xTaskPriorityInherit_0>
 c000718:	6ae9      	ldr	r1, [r5, #44]	; 0x2c
 c00071a:	4e42      	ldr	r6, [pc, #264]	; (c000824 <??DataTable46>)
 c00071c:	6ab2      	ldr	r2, [r6, #40]	; 0x28
 c00071e:	6ad2      	ldr	r2, [r2, #44]	; 0x2c
 c000720:	4291      	cmp	r1, r2
 c000722:	d21f      	bcs.n	c000764 <??xTaskPriorityInherit_1>
 c000724:	69a8      	ldr	r0, [r5, #24]
 c000726:	2800      	cmp	r0, #0
 c000728:	d404      	bmi.n	c000734 <??xTaskPriorityInherit_2>
 c00072a:	200b      	movs	r0, #11
 c00072c:	6ab2      	ldr	r2, [r6, #40]	; 0x28
 c00072e:	6ad2      	ldr	r2, [r2, #44]	; 0x2c
 c000730:	1a80      	subs	r0, r0, r2
 c000732:	61a8      	str	r0, [r5, #24]

0c000734 <??xTaskPriorityInherit_2>:
 c000734:	4c3c      	ldr	r4, [pc, #240]	; (c000828 <??DataTable46_1>)
 c000736:	6968      	ldr	r0, [r5, #20]
 c000738:	2214      	movs	r2, #20
 c00073a:	4351      	muls	r1, r2
 c00073c:	1861      	adds	r1, r4, r1
 c00073e:	4288      	cmp	r0, r1
 c000740:	d10c      	bne.n	c00075c <??xTaskPriorityInherit_3>
 c000742:	f7ff ff41 	bl	c0005c8 <?Subroutine11>

0c000746 <??CrossCallReturnLabel_34>:
 c000746:	6ab0      	ldr	r0, [r6, #40]	; 0x28
 c000748:	6ac0      	ldr	r0, [r0, #44]	; 0x2c
 c00074a:	6d71      	ldr	r1, [r6, #84]	; 0x54
 c00074c:	4281      	cmp	r1, r0
 c00074e:	d200      	bcs.n	c000752 <??xTaskPriorityInherit_4>
 c000750:	6570      	str	r0, [r6, #84]	; 0x54

0c000752 <??xTaskPriorityInherit_4>:
 c000752:	62e8      	str	r0, [r5, #44]	; 0x2c
 c000754:	1d29      	adds	r1, r5, #4
 c000756:	f000 f80c 	bl	c000772 <?Subroutine8>

0c00075a <??CrossCallReturnLabel_27>:
 c00075a:	e008      	b.n	c00076e <??xTaskPriorityInherit_5>

0c00075c <??xTaskPriorityInherit_3>:
 c00075c:	6ab0      	ldr	r0, [r6, #40]	; 0x28
 c00075e:	6ac0      	ldr	r0, [r0, #44]	; 0x2c
 c000760:	62e8      	str	r0, [r5, #44]	; 0x2c
 c000762:	e004      	b.n	c00076e <??xTaskPriorityInherit_5>

0c000764 <??xTaskPriorityInherit_1>:
 c000764:	6ce9      	ldr	r1, [r5, #76]	; 0x4c
 c000766:	6ab2      	ldr	r2, [r6, #40]	; 0x28
 c000768:	6ad2      	ldr	r2, [r2, #44]	; 0x2c
 c00076a:	4291      	cmp	r1, r2
 c00076c:	d200      	bcs.n	c000770 <??xTaskPriorityInherit_0>

0c00076e <??xTaskPriorityInherit_5>:
 c00076e:	2001      	movs	r0, #1

0c000770 <??xTaskPriorityInherit_0>:
 c000770:	bd70      	pop	{r4, r5, r6, pc}

0c000772 <?Subroutine8>:
 c000772:	2214      	movs	r2, #20
 c000774:	4350      	muls	r0, r2
 c000776:	1820      	adds	r0, r4, r0
 c000778:	f000 b8a4 	b.w	c0008c4 <vListInsertEnd>

0c00077c <xTaskPriorityDisinherit>:
 c00077c:	b510      	push	{r4, lr}
 c00077e:	0004      	movs	r4, r0
 c000780:	2000      	movs	r0, #0
 c000782:	b19c      	cbz	r4, c0007ac <??xTaskPriorityDisinherit_0>
 c000784:	6d21      	ldr	r1, [r4, #80]	; 0x50
 c000786:	1e49      	subs	r1, r1, #1
 c000788:	6521      	str	r1, [r4, #80]	; 0x50
 c00078a:	6ae2      	ldr	r2, [r4, #44]	; 0x2c
 c00078c:	6ce3      	ldr	r3, [r4, #76]	; 0x4c
 c00078e:	429a      	cmp	r2, r3
 c000790:	d00c      	beq.n	c0007ac <??xTaskPriorityDisinherit_0>
 c000792:	b959      	cbnz	r1, c0007ac <??xTaskPriorityDisinherit_0>
 c000794:	f000 f838 	bl	c000808 <?Subroutine2>

0c000798 <??CrossCallReturnLabel_4>:
 c000798:	6ce0      	ldr	r0, [r4, #76]	; 0x4c
 c00079a:	62e0      	str	r0, [r4, #44]	; 0x2c
 c00079c:	210b      	movs	r1, #11
 c00079e:	1a09      	subs	r1, r1, r0
 c0007a0:	61a1      	str	r1, [r4, #24]
 c0007a2:	f000 f82a 	bl	c0007fa <?Subroutine10>

0c0007a6 <??CrossCallReturnLabel_32>:
 c0007a6:	f7ff ff12 	bl	c0005ce <?Subroutine9>

0c0007aa <??CrossCallReturnLabel_29>:
 c0007aa:	2001      	movs	r0, #1

0c0007ac <??xTaskPriorityDisinherit_0>:
 c0007ac:	bd10      	pop	{r4, pc}

0c0007ae <vTaskPriorityDisinheritAfterTimeout>:
 c0007ae:	b538      	push	{r3, r4, r5, lr}
 c0007b0:	0004      	movs	r4, r0
 c0007b2:	d021      	beq.n	c0007f8 <??vTaskPriorityDisinheritAfterTimeout_0>
 c0007b4:	6ce0      	ldr	r0, [r4, #76]	; 0x4c
 c0007b6:	4281      	cmp	r1, r0
 c0007b8:	d200      	bcs.n	c0007bc <??vTaskPriorityDisinheritAfterTimeout_1>
 c0007ba:	0001      	movs	r1, r0

0c0007bc <??vTaskPriorityDisinheritAfterTimeout_1>:
 c0007bc:	6ae0      	ldr	r0, [r4, #44]	; 0x2c
 c0007be:	4288      	cmp	r0, r1
 c0007c0:	d01a      	beq.n	c0007f8 <??vTaskPriorityDisinheritAfterTimeout_0>
 c0007c2:	6d22      	ldr	r2, [r4, #80]	; 0x50
 c0007c4:	2a01      	cmp	r2, #1
 c0007c6:	d117      	bne.n	c0007f8 <??vTaskPriorityDisinheritAfterTimeout_0>
 c0007c8:	62e1      	str	r1, [r4, #44]	; 0x2c
 c0007ca:	69a2      	ldr	r2, [r4, #24]
 c0007cc:	2a00      	cmp	r2, #0
 c0007ce:	d402      	bmi.n	c0007d6 <??vTaskPriorityDisinheritAfterTimeout_2>
 c0007d0:	220b      	movs	r2, #11
 c0007d2:	1a51      	subs	r1, r2, r1
 c0007d4:	61a1      	str	r1, [r4, #24]

0c0007d6 <??vTaskPriorityDisinheritAfterTimeout_2>:
 c0007d6:	4d14      	ldr	r5, [pc, #80]	; (c000828 <??DataTable46_1>)
 c0007d8:	6961      	ldr	r1, [r4, #20]
 c0007da:	2214      	movs	r2, #20
 c0007dc:	4350      	muls	r0, r2
 c0007de:	1828      	adds	r0, r5, r0
 c0007e0:	4281      	cmp	r1, r0
 c0007e2:	d109      	bne.n	c0007f8 <??vTaskPriorityDisinheritAfterTimeout_0>
 c0007e4:	f000 f810 	bl	c000808 <?Subroutine2>

0c0007e8 <??CrossCallReturnLabel_3>:
 c0007e8:	6ae0      	ldr	r0, [r4, #44]	; 0x2c
 c0007ea:	f000 f806 	bl	c0007fa <?Subroutine10>

0c0007ee <??CrossCallReturnLabel_33>:
 c0007ee:	2214      	movs	r2, #20
 c0007f0:	4350      	muls	r0, r2
 c0007f2:	1828      	adds	r0, r5, r0
 c0007f4:	f000 f866 	bl	c0008c4 <vListInsertEnd>

0c0007f8 <??vTaskPriorityDisinheritAfterTimeout_0>:
 c0007f8:	bd31      	pop	{r0, r4, r5, pc}

0c0007fa <?Subroutine10>:
 c0007fa:	490a      	ldr	r1, [pc, #40]	; (c000824 <??DataTable46>)
 c0007fc:	6d4a      	ldr	r2, [r1, #84]	; 0x54
 c0007fe:	4282      	cmp	r2, r0
 c000800:	d200      	bcs.n	c000804 <??Subroutine10_0>
 c000802:	6548      	str	r0, [r1, #84]	; 0x54

0c000804 <??Subroutine10_0>:
 c000804:	1d21      	adds	r1, r4, #4
 c000806:	4770      	bx	lr

0c000808 <?Subroutine2>:
 c000808:	1d20      	adds	r0, r4, #4
 c00080a:	f000 b881 	b.w	c000910 <uxListRemove>
	...

0c000810 <pvTaskIncrementMutexHeldCount>:
 c000810:	481e      	ldr	r0, [pc, #120]	; (c00088c <??DataTable52>)
 c000812:	6a81      	ldr	r1, [r0, #40]	; 0x28
 c000814:	b119      	cbz	r1, c00081e <??pvTaskIncrementMutexHeldCount_0>
 c000816:	6a81      	ldr	r1, [r0, #40]	; 0x28
 c000818:	6d0a      	ldr	r2, [r1, #80]	; 0x50
 c00081a:	1c52      	adds	r2, r2, #1
 c00081c:	650a      	str	r2, [r1, #80]	; 0x50

0c00081e <??pvTaskIncrementMutexHeldCount_0>:
 c00081e:	6a80      	ldr	r0, [r0, #40]	; 0x28
 c000820:	4770      	bx	lr
	...

0c000824 <??DataTable46>:
 c000824:	9820 0008                                    ...

0c000828 <??DataTable46_1>:
 c000828:	98c0 0008                                   ....

0c00082c <?Subroutine6>:
 c00082c:	6aa8      	ldr	r0, [r5, #40]	; 0x28
 c00082e:	6ac0      	ldr	r0, [r0, #44]	; 0x2c
 c000830:	6ae1      	ldr	r1, [r4, #44]	; 0x2c
 c000832:	4288      	cmp	r0, r1
 c000834:	4770      	bx	lr

0c000836 <prvAddCurrentTaskToDelayedList>:
 c000836:	b5f8      	push	{r3, r4, r5, r6, r7, lr}
 c000838:	0004      	movs	r4, r0
 c00083a:	000e      	movs	r6, r1
 c00083c:	4d13      	ldr	r5, [pc, #76]	; (c00088c <??DataTable52>)
 c00083e:	6d2f      	ldr	r7, [r5, #80]	; 0x50
 c000840:	6aa8      	ldr	r0, [r5, #40]	; 0x28
 c000842:	1d00      	adds	r0, r0, #4
 c000844:	f000 f864 	bl	c000910 <uxListRemove>
 c000848:	2000      	movs	r0, #0
 c00084a:	43c0      	mvns	r0, r0
 c00084c:	4284      	cmp	r4, r0
 c00084e:	d107      	bne.n	c000860 <??prvAddCurrentTaskToDelayedList_0>
 c000850:	b136      	cbz	r6, c000860 <??prvAddCurrentTaskToDelayedList_0>
 c000852:	6aa8      	ldr	r0, [r5, #40]	; 0x28
 c000854:	1d01      	adds	r1, r0, #4
 c000856:	0028      	movs	r0, r5
 c000858:	3038      	adds	r0, #56	; 0x38
 c00085a:	f000 f833 	bl	c0008c4 <vListInsertEnd>
 c00085e:	bdf1      	pop	{r0, r4, r5, r6, r7, pc}

0c000860 <??prvAddCurrentTaskToDelayedList_0>:
 c000860:	193c      	adds	r4, r7, r4
 c000862:	6aa8      	ldr	r0, [r5, #40]	; 0x28
 c000864:	6044      	str	r4, [r0, #4]
 c000866:	42bc      	cmp	r4, r7
 c000868:	6aa8      	ldr	r0, [r5, #40]	; 0x28
 c00086a:	d204      	bcs.n	c000876 <??prvAddCurrentTaskToDelayedList_1>
 c00086c:	1d01      	adds	r1, r0, #4
 c00086e:	6b28      	ldr	r0, [r5, #48]	; 0x30
 c000870:	f000 f834 	bl	c0008dc <vListInsert>
 c000874:	bdf1      	pop	{r0, r4, r5, r6, r7, pc}

0c000876 <??prvAddCurrentTaskToDelayedList_1>:
 c000876:	1d01      	adds	r1, r0, #4
 c000878:	6ae8      	ldr	r0, [r5, #44]	; 0x2c
 c00087a:	f000 f82f 	bl	c0008dc <vListInsert>
 c00087e:	6ee8      	ldr	r0, [r5, #108]	; 0x6c
 c000880:	4284      	cmp	r4, r0
 c000882:	d200      	bcs.n	c000886 <??prvAddCurrentTaskToDelayedList_2>
 c000884:	66ec      	str	r4, [r5, #108]	; 0x6c

0c000886 <??prvAddCurrentTaskToDelayedList_2>:
 c000886:	bdf1      	pop	{r0, r4, r5, r6, r7, pc}
 c000888:	0000      	movs	r0, r0
	...

0c00088c <??DataTable52>:
 c00088c:	9820 0008                                    ...

0c000890 <__iar_small_memclr>:
 c000890:	2200      	movs	r2, #0
 c000892:	bf00      	nop

0c000894 <__iar_small_Memset4_word>:
 c000894:	4209      	tst	r1, r1
 c000896:	d002      	beq.n	c00089e <__iar_small_Memset4_word+0xa>
 c000898:	1e49      	subs	r1, r1, #1
 c00089a:	5442      	strb	r2, [r0, r1]
 c00089c:	d1fc      	bne.n	c000898 <__iar_small_Memset4_word+0x4>
 c00089e:	4770      	bx	lr

0c0008a0 <vListInitialise>:
 c0008a0:	0001      	movs	r1, r0
 c0008a2:	3108      	adds	r1, #8
 c0008a4:	6041      	str	r1, [r0, #4]
 c0008a6:	2100      	movs	r1, #0
 c0008a8:	43c9      	mvns	r1, r1
 c0008aa:	6081      	str	r1, [r0, #8]
 c0008ac:	0001      	movs	r1, r0
 c0008ae:	3108      	adds	r1, #8
 c0008b0:	60c1      	str	r1, [r0, #12]
 c0008b2:	0001      	movs	r1, r0
 c0008b4:	3108      	adds	r1, #8
 c0008b6:	6101      	str	r1, [r0, #16]
 c0008b8:	2100      	movs	r1, #0
 c0008ba:	6001      	str	r1, [r0, #0]
 c0008bc:	4770      	bx	lr

0c0008be <vListInitialiseItem>:
 c0008be:	2100      	movs	r1, #0
 c0008c0:	6101      	str	r1, [r0, #16]
 c0008c2:	4770      	bx	lr

0c0008c4 <vListInsertEnd>:
 c0008c4:	6842      	ldr	r2, [r0, #4]
 c0008c6:	604a      	str	r2, [r1, #4]
 c0008c8:	6893      	ldr	r3, [r2, #8]
 c0008ca:	608b      	str	r3, [r1, #8]
 c0008cc:	6893      	ldr	r3, [r2, #8]
 c0008ce:	6059      	str	r1, [r3, #4]
 c0008d0:	6091      	str	r1, [r2, #8]
 c0008d2:	6108      	str	r0, [r1, #16]
 c0008d4:	6801      	ldr	r1, [r0, #0]
 c0008d6:	1c49      	adds	r1, r1, #1
 c0008d8:	6001      	str	r1, [r0, #0]
 c0008da:	4770      	bx	lr

0c0008dc <vListInsert>:
 c0008dc:	b530      	push	{r4, r5, lr}
 c0008de:	680a      	ldr	r2, [r1, #0]
 c0008e0:	2300      	movs	r3, #0
 c0008e2:	43db      	mvns	r3, r3
 c0008e4:	429a      	cmp	r2, r3
 c0008e6:	d101      	bne.n	c0008ec <??vListInsert_0>
 c0008e8:	6903      	ldr	r3, [r0, #16]
 c0008ea:	e007      	b.n	c0008fc <??vListInsert_1>

0c0008ec <??vListInsert_0>:
 c0008ec:	0003      	movs	r3, r0
 c0008ee:	3308      	adds	r3, #8
 c0008f0:	e000      	b.n	c0008f4 <??vListInsert_2>

0c0008f2 <??vListInsert_3>:
 c0008f2:	0023      	movs	r3, r4

0c0008f4 <??vListInsert_2>:
 c0008f4:	685c      	ldr	r4, [r3, #4]
 c0008f6:	6825      	ldr	r5, [r4, #0]
 c0008f8:	42aa      	cmp	r2, r5
 c0008fa:	d2fa      	bcs.n	c0008f2 <??vListInsert_3>

0c0008fc <??vListInsert_1>:
 c0008fc:	685a      	ldr	r2, [r3, #4]
 c0008fe:	604a      	str	r2, [r1, #4]
 c000900:	6091      	str	r1, [r2, #8]
 c000902:	608b      	str	r3, [r1, #8]
 c000904:	6059      	str	r1, [r3, #4]
 c000906:	6108      	str	r0, [r1, #16]
 c000908:	6801      	ldr	r1, [r0, #0]
 c00090a:	1c49      	adds	r1, r1, #1
 c00090c:	6001      	str	r1, [r0, #0]
 c00090e:	bd30      	pop	{r4, r5, pc}

0c000910 <uxListRemove>:
 c000910:	6901      	ldr	r1, [r0, #16]
 c000912:	6882      	ldr	r2, [r0, #8]
 c000914:	6843      	ldr	r3, [r0, #4]
 c000916:	609a      	str	r2, [r3, #8]
 c000918:	6842      	ldr	r2, [r0, #4]
 c00091a:	6883      	ldr	r3, [r0, #8]
 c00091c:	605a      	str	r2, [r3, #4]
 c00091e:	684a      	ldr	r2, [r1, #4]
 c000920:	4282      	cmp	r2, r0
 c000922:	d101      	bne.n	c000928 <??uxListRemove_0>
 c000924:	6882      	ldr	r2, [r0, #8]
 c000926:	604a      	str	r2, [r1, #4]

0c000928 <??uxListRemove_0>:
 c000928:	2200      	movs	r2, #0
 c00092a:	6102      	str	r2, [r0, #16]
 c00092c:	6808      	ldr	r0, [r1, #0]
 c00092e:	1e40      	subs	r0, r0, #1
 c000930:	6008      	str	r0, [r1, #0]
 c000932:	6808      	ldr	r0, [r1, #0]
 c000934:	4770      	bx	lr
	...

0c000938 <?Veneer 18 (3) for DiagPrintf>:
 c000938:	b408      	push	{r3}
 c00093a:	4b02      	ldr	r3, [pc, #8]	; (c000944 <?Veneer 18 (3) for DiagPrintf+0xc>)
 c00093c:	469c      	mov	ip, r3
 c00093e:	bc08      	pop	{r3}
 c000940:	4760      	bx	ip
 c000942:	46c0      	nop			; (mov r8, r8)
 c000944:	00000475 	.word	0x00000475

0c000948 <?Veneer 55 (3) for app_taskidle_handler>:
 c000948:	b408      	push	{r3}
 c00094a:	4b02      	ldr	r3, [pc, #8]	; (c000954 <?Veneer 55 (3) for app_taskidle_handler+0xc>)
 c00094c:	469c      	mov	ip, r3
 c00094e:	bc08      	pop	{r3}
 c000950:	4760      	bx	ip
 c000952:	46c0      	nop			; (mov r8, r8)
 c000954:	00083d91 	.word	0x00083d91

0c000958 <pxPortInitialiseStack>:
 c000958:	b510      	push	{r4, lr}
 c00095a:	0003      	movs	r3, r0
 c00095c:	3b0c      	subs	r3, #12
 c00095e:	2480      	movs	r4, #128	; 0x80
 c000960:	0464      	lsls	r4, r4, #17
 c000962:	609c      	str	r4, [r3, #8]
 c000964:	6059      	str	r1, [r3, #4]
 c000966:	492e      	ldr	r1, [pc, #184]	; (c000a20 <??DataTable7>)
 c000968:	6019      	str	r1, [r3, #0]
 c00096a:	3820      	subs	r0, #32
 c00096c:	6002      	str	r2, [r0, #0]
 c00096e:	3820      	subs	r0, #32
 c000970:	bd10      	pop	{r4, pc}
	...

0c000974 <prvTaskExitError>:
 c000974:	b672      	cpsid	i

0c000976 <??prvTaskExitError_0>:
 c000976:	e7fe      	b.n	c000976 <??prvTaskExitError_0>

0c000978 <xPortStartScheduler>:
 c000978:	b580      	push	{r7, lr}
 c00097a:	482a      	ldr	r0, [pc, #168]	; (c000a24 <??DataTable7_1>)
 c00097c:	6801      	ldr	r1, [r0, #0]
 c00097e:	22ff      	movs	r2, #255	; 0xff
 c000980:	0412      	lsls	r2, r2, #16
 c000982:	430a      	orrs	r2, r1
 c000984:	6002      	str	r2, [r0, #0]
 c000986:	6801      	ldr	r1, [r0, #0]
 c000988:	22ff      	movs	r2, #255	; 0xff
 c00098a:	0612      	lsls	r2, r2, #24
 c00098c:	430a      	orrs	r2, r1
 c00098e:	6002      	str	r2, [r0, #0]
 c000990:	4825      	ldr	r0, [pc, #148]	; (c000a28 <??DataTable7_2>)
 c000992:	2100      	movs	r1, #0
 c000994:	6001      	str	r1, [r0, #0]
 c000996:	6081      	str	r1, [r0, #8]
 c000998:	4a24      	ldr	r2, [pc, #144]	; (c000a2c <??DataTable7_3>)
 c00099a:	6812      	ldr	r2, [r2, #0]
 c00099c:	f240 33e8 	movw	r3, #1000	; 0x3e8
 c0009a0:	fbb2 f2f3 	udiv	r2, r2, r3
 c0009a4:	1e52      	subs	r2, r2, #1
 c0009a6:	6042      	str	r2, [r0, #4]
 c0009a8:	2207      	movs	r2, #7
 c0009aa:	6002      	str	r2, [r0, #0]
 c0009ac:	4820      	ldr	r0, [pc, #128]	; (c000a30 <??DataTable7_4>)
 c0009ae:	6001      	str	r1, [r0, #0]
 c0009b0:	f010 ffc9 	bl	c011946 <vPortStartFirstTask>
 c0009b4:	2000      	movs	r0, #0
 c0009b6:	bd02      	pop	{r1, pc}

0c0009b8 <vPortYield>:
 c0009b8:	2080      	movs	r0, #128	; 0x80
 c0009ba:	0540      	lsls	r0, r0, #21
 c0009bc:	491d      	ldr	r1, [pc, #116]	; (c000a34 <??DataTable7_5>)
 c0009be:	6008      	str	r0, [r1, #0]
 c0009c0:	e006      	b.n	c0009d0 <?Subroutine0>
	...

0c0009c4 <vPortEnterCritical>:
 c0009c4:	b672      	cpsid	i
 c0009c6:	481a      	ldr	r0, [pc, #104]	; (c000a30 <??DataTable7_4>)
 c0009c8:	6801      	ldr	r1, [r0, #0]
 c0009ca:	1c49      	adds	r1, r1, #1
 c0009cc:	6001      	str	r1, [r0, #0]
 c0009ce:	bf00      	nop

0c0009d0 <?Subroutine0>:
 c0009d0:	f3bf 8f4f 	dsb	sy
 c0009d4:	f3bf 8f6f 	isb	sy
 c0009d8:	4770      	bx	lr
	...

0c0009dc <vPortExitCritical>:
 c0009dc:	4814      	ldr	r0, [pc, #80]	; (c000a30 <??DataTable7_4>)
 c0009de:	6801      	ldr	r1, [r0, #0]
 c0009e0:	1e49      	subs	r1, r1, #1
 c0009e2:	6001      	str	r1, [r0, #0]
 c0009e4:	2900      	cmp	r1, #0
 c0009e6:	d100      	bne.n	c0009ea <??vPortExitCritical_0>
 c0009e8:	b662      	cpsie	i

0c0009ea <??vPortExitCritical_0>:
 c0009ea:	4770      	bx	lr

0c0009ec <SysTick_Handler>:
 c0009ec:	b510      	push	{r4, lr}
 c0009ee:	f010 ffbb 	bl	c011968 <ulSetInterruptMaskFromISR>
 c0009f2:	0004      	movs	r4, r0
 c0009f4:	f7ff fd1c 	bl	c000430 <xTaskIncrementTick>
 c0009f8:	b118      	cbz	r0, c000a02 <??SysTick_Handler_0>
 c0009fa:	2080      	movs	r0, #128	; 0x80
 c0009fc:	0540      	lsls	r0, r0, #21
 c0009fe:	490d      	ldr	r1, [pc, #52]	; (c000a34 <??DataTable7_5>)
 c000a00:	6008      	str	r0, [r1, #0]

0c000a02 <??SysTick_Handler_0>:
 c000a02:	0020      	movs	r0, r4
 c000a04:	f010 ffb4 	bl	c011970 <vClearInterruptMaskFromISR>
 c000a08:	bd10      	pop	{r4, pc}

0c000a0a <vApplicationIdleHook>:
 c000a0a:	f7ff bf9d 	b.w	c000948 <?Veneer 55 (3) for app_taskidle_handler>
	...

0c000a10 <vApplicationStackOverflowHook>:
 c000a10:	b580      	push	{r7, lr}
 c000a12:	000a      	movs	r2, r1
 c000a14:	a109      	add	r1, pc, #36	; (adr r1, c000a3c <vApplicationStackOverflowHook::__FUNCTION__>)
 c000a16:	4808      	ldr	r0, [pc, #32]	; (c000a38 <??DataTable7_6>)
 c000a18:	f7ff ff8e 	bl	c000938 <?Veneer 18 (3) for DiagPrintf>

0c000a1c <??vApplicationStackOverflowHook_0>:
 c000a1c:	e7fe      	b.n	c000a1c <??vApplicationStackOverflowHook_0>
	...

0c000a20 <??DataTable7>:
 c000a20:	0975 0c00                                   u...

0c000a24 <??DataTable7_1>:
 c000a24:	ed20 e000                                    ...

0c000a28 <??DataTable7_2>:
 c000a28:	e010 e000                                   ....

0c000a2c <??DataTable7_3>:
 c000a2c:	4454 0008                                   TD..

0c000a30 <??DataTable7_4>:
 c000a30:	3dac 0008                                   .=..

0c000a34 <??DataTable7_5>:
 c000a34:	ed04 e000                                   ....

0c000a38 <??DataTable7_6>:
 c000a38:	ffd0 0c00                                   ....

0c000a3c <vApplicationStackOverflowHook::__FUNCTION__>:
 c000a3c:	4176 7070 696c 6163 6974 6e6f 7453 6361     vApplicationStac
 c000a4c:	4f6b 6576 6672 6f6c 4877 6f6f 006b 0000     kOverflowHook...

0c000a5c <xTimerCreateTimerTask>:
 c000a5c:	b51c      	push	{r2, r3, r4, lr}
 c000a5e:	2400      	movs	r4, #0
 c000a60:	f000 f979 	bl	c000d56 <prvCheckForValidListAndQueue>
 c000a64:	4888      	ldr	r0, [pc, #544]	; (c000c88 <??DataTable4>)
 c000a66:	6881      	ldr	r1, [r0, #8]
 c000a68:	b159      	cbz	r1, c000a82 <??xTimerCreateTimerTask_0>
 c000a6a:	300c      	adds	r0, #12
 c000a6c:	9001      	str	r0, [sp, #4]
 c000a6e:	2001      	movs	r0, #1
 c000a70:	9000      	str	r0, [sp, #0]
 c000a72:	2300      	movs	r3, #0
 c000a74:	0242      	lsls	r2, r0, #9
 c000a76:	bf00      	nop
 c000a78:	a103      	add	r1, pc, #12	; (adr r1, c000a88 <?_0>)
 c000a7a:	48a5      	ldr	r0, [pc, #660]	; (c000d10 <??DataTable5>)
 c000a7c:	f7ff fb92 	bl	c0001a4 <xTaskCreate>
 c000a80:	0004      	movs	r4, r0

0c000a82 <??xTimerCreateTimerTask_0>:
 c000a82:	0020      	movs	r0, r4
 c000a84:	bd16      	pop	{r1, r2, r4, pc}
	...

0c000a88 <?_0>:
 c000a88:	6d54 2072 7653 0063                         Tmr Svc.

0c000a90 <xTimerGenericCommand>:
 c000a90:	b5fb      	push	{r0, r1, r3, r4, r5, r6, r7, lr}
 c000a92:	b084      	sub	sp, #16
 c000a94:	0004      	movs	r4, r0
 c000a96:	0015      	movs	r5, r2
 c000a98:	2600      	movs	r6, #0
 c000a9a:	f7ff fe29 	bl	c0006f0 <xTaskGetCurrentTaskHandle>
 c000a9e:	4f7a      	ldr	r7, [pc, #488]	; (c000c88 <??DataTable4>)
 c000aa0:	68f9      	ldr	r1, [r7, #12]
 c000aa2:	4288      	cmp	r0, r1
 c000aa4:	d12d      	bne.n	c000b02 <??xTimerGenericCommand_0>
 c000aa6:	9805      	ldr	r0, [sp, #20]
 c000aa8:	2803      	cmp	r0, #3
 c000aaa:	d001      	beq.n	c000ab0 <??xTimerGenericCommand_1>
 c000aac:	2804      	cmp	r0, #4
 c000aae:	d128      	bne.n	c000b02 <??xTimerGenericCommand_0>

0c000ab0 <??xTimerGenericCommand_1>:
 c000ab0:	f7ff fcb5 	bl	c00041e <xTaskGetTickCount>
 c000ab4:	0006      	movs	r6, r0
 c000ab6:	6960      	ldr	r0, [r4, #20]
 c000ab8:	b108      	cbz	r0, c000abe <??CrossCallReturnLabel_8>
 c000aba:	f000 f8e8 	bl	c000c8e <??Subroutine6_0>

0c000abe <??CrossCallReturnLabel_8>:
 c000abe:	9805      	ldr	r0, [sp, #20]
 c000ac0:	2803      	cmp	r0, #3
 c000ac2:	d01a      	beq.n	c000afa <??xTimerGenericCommand_2>
 c000ac4:	d31b      	bcc.n	c000afe <??CrossCallReturnLabel_4>
 c000ac6:	2805      	cmp	r0, #5
 c000ac8:	d001      	beq.n	c000ace <??xTimerGenericCommand_3>
 c000aca:	d308      	bcc.n	c000ade <??xTimerGenericCommand_4>
 c000acc:	e017      	b.n	c000afe <??CrossCallReturnLabel_4>

0c000ace <??xTimerGenericCommand_3>:
 c000ace:	2028      	movs	r0, #40	; 0x28
 c000ad0:	5c20      	ldrb	r0, [r4, r0]
 c000ad2:	0780      	lsls	r0, r0, #30
 c000ad4:	d411      	bmi.n	c000afa <??xTimerGenericCommand_2>
 c000ad6:	0020      	movs	r0, r4
 c000ad8:	f7ff faf3 	bl	c0000c2 <vPortFree>
 c000adc:	e00f      	b.n	c000afe <??CrossCallReturnLabel_4>

0c000ade <??xTimerGenericCommand_4>:
 c000ade:	2028      	movs	r0, #40	; 0x28
 c000ae0:	5c20      	ldrb	r0, [r4, r0]
 c000ae2:	2101      	movs	r1, #1
 c000ae4:	4301      	orrs	r1, r0
 c000ae6:	2028      	movs	r0, #40	; 0x28
 c000ae8:	5421      	strb	r1, [r4, r0]
 c000aea:	61a5      	str	r5, [r4, #24]
 c000aec:	0033      	movs	r3, r6
 c000aee:	0032      	movs	r2, r6
 c000af0:	1971      	adds	r1, r6, r5
 c000af2:	0020      	movs	r0, r4
 c000af4:	f000 f915 	bl	c000d22 <prvInsertTimerInActiveList>
 c000af8:	e001      	b.n	c000afe <??CrossCallReturnLabel_4>

0c000afa <??xTimerGenericCommand_2>:
 c000afa:	f000 f8d2 	bl	c000ca2 <?Subroutine4>

0c000afe <??CrossCallReturnLabel_4>:
 c000afe:	2001      	movs	r0, #1
 c000b00:	e01d      	b.n	c000b3e <??xTimerGenericCommand_5>

0c000b02 <??xTimerGenericCommand_0>:
 c000b02:	68b8      	ldr	r0, [r7, #8]
 c000b04:	b1d0      	cbz	r0, c000b3c <??xTimerGenericCommand_6>
 c000b06:	9905      	ldr	r1, [sp, #20]
 c000b08:	9100      	str	r1, [sp, #0]
 c000b0a:	9501      	str	r5, [sp, #4]
 c000b0c:	9402      	str	r4, [sp, #8]
 c000b0e:	9905      	ldr	r1, [sp, #20]
 c000b10:	2906      	cmp	r1, #6
 c000b12:	da0d      	bge.n	c000b30 <??xTimerGenericCommand_7>
 c000b14:	f7ff fdef 	bl	c0006f6 <xTaskGetSchedulerState>
 c000b18:	2802      	cmp	r0, #2
 c000b1a:	d102      	bne.n	c000b22 <??xTimerGenericCommand_8>
 c000b1c:	9a0c      	ldr	r2, [sp, #48]	; 0x30
 c000b1e:	2300      	movs	r3, #0
 c000b20:	e001      	b.n	c000b26 <??xTimerGenericCommand_9>

0c000b22 <??xTimerGenericCommand_8>:
 c000b22:	2300      	movs	r3, #0
 c000b24:	2200      	movs	r2, #0

0c000b26 <??xTimerGenericCommand_9>:
 c000b26:	4669      	mov	r1, sp
 c000b28:	68b8      	ldr	r0, [r7, #8]
 c000b2a:	f000 fb2a 	bl	c001182 <xQueueGenericSend>
 c000b2e:	e004      	b.n	c000b3a <??xTimerGenericCommand_10>

0c000b30 <??xTimerGenericCommand_7>:
 c000b30:	9a06      	ldr	r2, [sp, #24]
 c000b32:	2300      	movs	r3, #0
 c000b34:	4669      	mov	r1, sp
 c000b36:	f000 fb92 	bl	c00125e <xQueueGenericSendFromISR>

0c000b3a <??xTimerGenericCommand_10>:
 c000b3a:	0006      	movs	r6, r0

0c000b3c <??xTimerGenericCommand_6>:
 c000b3c:	0030      	movs	r0, r6

0c000b3e <??xTimerGenericCommand_5>:
 c000b3e:	b007      	add	sp, #28
 c000b40:	bdf0      	pop	{r4, r5, r6, r7, pc}
	...

0c000b44 <prvTimerTask>:
 c000b44:	b5f0      	push	{r4, r5, r6, r7, lr}
 c000b46:	b087      	sub	sp, #28

0c000b48 <??prvTimerTask_1>:
 c000b48:	484f      	ldr	r0, [pc, #316]	; (c000c88 <??DataTable4>)
 c000b4a:	6800      	ldr	r0, [r0, #0]
 c000b4c:	2101      	movs	r1, #1
 c000b4e:	9102      	str	r1, [sp, #8]
 c000b50:	6801      	ldr	r1, [r0, #0]
 c000b52:	b911      	cbnz	r1, c000b5a <??prvTimerTask_2>
 c000b54:	2601      	movs	r6, #1
 c000b56:	2500      	movs	r5, #0
 c000b58:	e002      	b.n	c000b60 <??prvTimerTask_3>

0c000b5a <??prvTimerTask_2>:
 c000b5a:	2600      	movs	r6, #0
 c000b5c:	68c0      	ldr	r0, [r0, #12]
 c000b5e:	6805      	ldr	r5, [r0, #0]

0c000b60 <??prvTimerTask_3>:
 c000b60:	f7ff fc08 	bl	c000374 <vTaskSuspendAll>
 c000b64:	a801      	add	r0, sp, #4
 c000b66:	f000 f8a3 	bl	c000cb0 <prvSampleTimeNow>
 c000b6a:	0007      	movs	r7, r0
 c000b6c:	4c46      	ldr	r4, [pc, #280]	; (c000c88 <??DataTable4>)
 c000b6e:	9801      	ldr	r0, [sp, #4]
 c000b70:	2800      	cmp	r0, #0
 c000b72:	d12f      	bne.n	c000bd4 <??prvTimerTask_4>
 c000b74:	b9f6      	cbnz	r6, c000bb4 <??prvTimerTask_5>
 c000b76:	42af      	cmp	r7, r5
 c000b78:	d321      	bcc.n	c000bbe <??prvTimerTask_6>
 c000b7a:	f7ff fc12 	bl	c0003a2 <xTaskResumeAll>
 c000b7e:	6820      	ldr	r0, [r4, #0]
 c000b80:	68c0      	ldr	r0, [r0, #12]
 c000b82:	f000 f883 	bl	c000c8c <?Subroutine6>

0c000b86 <??CrossCallReturnLabel_9>:
 c000b86:	2028      	movs	r0, #40	; 0x28
 c000b88:	5c20      	ldrb	r0, [r4, r0]
 c000b8a:	0741      	lsls	r1, r0, #29
 c000b8c:	d50a      	bpl.n	c000ba4 <??prvTimerTask_7>
 c000b8e:	002b      	movs	r3, r5
 c000b90:	003a      	movs	r2, r7
 c000b92:	69a0      	ldr	r0, [r4, #24]
 c000b94:	1829      	adds	r1, r5, r0
 c000b96:	0020      	movs	r0, r4
 c000b98:	f000 f8c3 	bl	c000d22 <prvInsertTimerInActiveList>
 c000b9c:	b130      	cbz	r0, c000bac <??prvTimerTask_8>
 c000b9e:	f000 f8b9 	bl	c000d14 <?Subroutine2>

0c000ba2 <??CrossCallReturnLabel_0>:
 c000ba2:	e003      	b.n	c000bac <??prvTimerTask_8>

0c000ba4 <??prvTimerTask_7>:
 c000ba4:	21fe      	movs	r1, #254	; 0xfe
 c000ba6:	4001      	ands	r1, r0
 c000ba8:	2028      	movs	r0, #40	; 0x28
 c000baa:	5421      	strb	r1, [r4, r0]

0c000bac <??prvTimerTask_8>:
 c000bac:	0020      	movs	r0, r4
 c000bae:	6a21      	ldr	r1, [r4, #32]
 c000bb0:	4788      	blx	r1
 c000bb2:	e011      	b.n	c000bd8 <??prvTimerTask_9>

0c000bb4 <??prvTimerTask_5>:
 c000bb4:	6860      	ldr	r0, [r4, #4]
 c000bb6:	6800      	ldr	r0, [r0, #0]
 c000bb8:	1e46      	subs	r6, r0, #1
 c000bba:	41b6      	sbcs	r6, r6
 c000bbc:	0ff6      	lsrs	r6, r6, #31

0c000bbe <??prvTimerTask_6>:
 c000bbe:	0032      	movs	r2, r6
 c000bc0:	1be9      	subs	r1, r5, r7
 c000bc2:	68a0      	ldr	r0, [r4, #8]
 c000bc4:	f000 fd33 	bl	c00162e <vQueueWaitForMessageRestricted>
 c000bc8:	f7ff fbeb 	bl	c0003a2 <xTaskResumeAll>
 c000bcc:	b920      	cbnz	r0, c000bd8 <??prvTimerTask_9>
 c000bce:	f7ff fef3 	bl	c0009b8 <vPortYield>
 c000bd2:	e001      	b.n	c000bd8 <??prvTimerTask_9>

0c000bd4 <??prvTimerTask_4>:
 c000bd4:	f7ff fbe5 	bl	c0003a2 <xTaskResumeAll>

0c000bd8 <??prvTimerTask_9>:
 c000bd8:	4d2b      	ldr	r5, [pc, #172]	; (c000c88 <??DataTable4>)
 c000bda:	e006      	b.n	c000bea <??prvTimerTask_10>

0c000bdc <??prvTimerTask_11>:
 c000bdc:	2028      	movs	r0, #40	; 0x28
 c000bde:	5c20      	ldrb	r0, [r4, r0]
 c000be0:	0780      	lsls	r0, r0, #30
 c000be2:	d432      	bmi.n	c000c4a <??prvTimerTask_12>
 c000be4:	0020      	movs	r0, r4
 c000be6:	f7ff fa6c 	bl	c0000c2 <vPortFree>

0c000bea <??prvTimerTask_10>:
 c000bea:	2200      	movs	r2, #0
 c000bec:	a903      	add	r1, sp, #12
 c000bee:	68a8      	ldr	r0, [r5, #8]
 c000bf0:	f000 fb93 	bl	c00131a <xQueueReceive>
 c000bf4:	2800      	cmp	r0, #0
 c000bf6:	d0a7      	beq.n	c000b48 <??prvTimerTask_1>
 c000bf8:	9803      	ldr	r0, [sp, #12]
 c000bfa:	2800      	cmp	r0, #0
 c000bfc:	d503      	bpl.n	c000c06 <??prvTimerTask_13>
 c000bfe:	9906      	ldr	r1, [sp, #24]
 c000c00:	9805      	ldr	r0, [sp, #20]
 c000c02:	9a04      	ldr	r2, [sp, #16]
 c000c04:	4790      	blx	r2

0c000c06 <??prvTimerTask_13>:
 c000c06:	9803      	ldr	r0, [sp, #12]
 c000c08:	2800      	cmp	r0, #0
 c000c0a:	d4ee      	bmi.n	c000bea <??prvTimerTask_10>
 c000c0c:	9c05      	ldr	r4, [sp, #20]
 c000c0e:	6960      	ldr	r0, [r4, #20]
 c000c10:	b108      	cbz	r0, c000c16 <??CrossCallReturnLabel_10>
 c000c12:	f000 f83c 	bl	c000c8e <??Subroutine6_0>

0c000c16 <??CrossCallReturnLabel_10>:
 c000c16:	a801      	add	r0, sp, #4
 c000c18:	f000 f84a 	bl	c000cb0 <prvSampleTimeNow>
 c000c1c:	0002      	movs	r2, r0
 c000c1e:	9803      	ldr	r0, [sp, #12]
 c000c20:	2809      	cmp	r0, #9
 c000c22:	d8e2      	bhi.n	c000bea <??prvTimerTask_10>
 c000c24:	a101      	add	r1, pc, #4	; (adr r1, c000c2c <??prvTimerTask_0>)
 c000c26:	5609      	ldrsb	r1, [r1, r0]
 c000c28:	448f      	add	pc, r1
 c000c2a:	bf00      	nop

0c000c2c <??prvTimerTask_0>:
 c000c2c:	2424 1e24 b00a 2424 0a1e                    $$$...$$..

0c000c36 <??prvTimerTask_14>:
 c000c36:	f000 f82d 	bl	c000c94 <?Subroutine5>

0c000c3a <??CrossCallReturnLabel_6>:
 c000c3a:	9804      	ldr	r0, [sp, #16]
 c000c3c:	61a0      	str	r0, [r4, #24]
 c000c3e:	0013      	movs	r3, r2
 c000c40:	1811      	adds	r1, r2, r0
 c000c42:	0020      	movs	r0, r4
 c000c44:	f000 f86d 	bl	c000d22 <prvInsertTimerInActiveList>
 c000c48:	e7cf      	b.n	c000bea <??prvTimerTask_10>

0c000c4a <??prvTimerTask_12>:
 c000c4a:	f000 f82a 	bl	c000ca2 <?Subroutine4>

0c000c4e <??CrossCallReturnLabel_5>:
 c000c4e:	e7cc      	b.n	c000bea <??prvTimerTask_10>

0c000c50 <??prvTimerTask_15>:
 c000c50:	f000 f820 	bl	c000c94 <?Subroutine5>

0c000c54 <??CrossCallReturnLabel_7>:
 c000c54:	9b04      	ldr	r3, [sp, #16]
 c000c56:	69a0      	ldr	r0, [r4, #24]
 c000c58:	1819      	adds	r1, r3, r0
 c000c5a:	0020      	movs	r0, r4
 c000c5c:	f000 f861 	bl	c000d22 <prvInsertTimerInActiveList>
 c000c60:	2800      	cmp	r0, #0
 c000c62:	d0c2      	beq.n	c000bea <??prvTimerTask_10>
 c000c64:	0020      	movs	r0, r4
 c000c66:	6a21      	ldr	r1, [r4, #32]
 c000c68:	4788      	blx	r1
 c000c6a:	2028      	movs	r0, #40	; 0x28
 c000c6c:	5c20      	ldrb	r0, [r4, r0]
 c000c6e:	0740      	lsls	r0, r0, #29
 c000c70:	d5bb      	bpl.n	c000bea <??prvTimerTask_10>
 c000c72:	2000      	movs	r0, #0
 c000c74:	9000      	str	r0, [sp, #0]
 c000c76:	2300      	movs	r3, #0
 c000c78:	9804      	ldr	r0, [sp, #16]
 c000c7a:	69a1      	ldr	r1, [r4, #24]
 c000c7c:	1842      	adds	r2, r0, r1
 c000c7e:	2100      	movs	r1, #0
 c000c80:	0020      	movs	r0, r4
 c000c82:	f7ff ff05 	bl	c000a90 <xTimerGenericCommand>
 c000c86:	e7b0      	b.n	c000bea <??prvTimerTask_10>

0c000c88 <??DataTable4>:
 c000c88:	999c 0008                                   ....

0c000c8c <?Subroutine6>:
 c000c8c:	68c4      	ldr	r4, [r0, #12]

0c000c8e <??Subroutine6_0>:
 c000c8e:	1d20      	adds	r0, r4, #4
 c000c90:	f7ff be3e 	b.w	c000910 <uxListRemove>

0c000c94 <?Subroutine5>:
 c000c94:	2028      	movs	r0, #40	; 0x28
 c000c96:	5c20      	ldrb	r0, [r4, r0]
 c000c98:	9902      	ldr	r1, [sp, #8]
 c000c9a:	4301      	orrs	r1, r0
 c000c9c:	2028      	movs	r0, #40	; 0x28
 c000c9e:	5421      	strb	r1, [r4, r0]
 c000ca0:	4770      	bx	lr

0c000ca2 <?Subroutine4>:
 c000ca2:	2028      	movs	r0, #40	; 0x28
 c000ca4:	5c20      	ldrb	r0, [r4, r0]
 c000ca6:	21fe      	movs	r1, #254	; 0xfe
 c000ca8:	4001      	ands	r1, r0
 c000caa:	2028      	movs	r0, #40	; 0x28
 c000cac:	5421      	strb	r1, [r4, r0]
 c000cae:	4770      	bx	lr

0c000cb0 <prvSampleTimeNow>:
 c000cb0:	b5fe      	push	{r1, r2, r3, r4, r5, r6, r7, lr}
 c000cb2:	0007      	movs	r7, r0
 c000cb4:	f7ff fbb3 	bl	c00041e <xTaskGetTickCount>
 c000cb8:	9001      	str	r0, [sp, #4]
 c000cba:	4e35      	ldr	r6, [pc, #212]	; (c000d90 <??DataTable8>)
 c000cbc:	6931      	ldr	r1, [r6, #16]
 c000cbe:	4288      	cmp	r0, r1
 c000cc0:	d30b      	bcc.n	c000cda <??prvSampleTimeNow_0>
 c000cc2:	2000      	movs	r0, #0

0c000cc4 <??prvSampleTimeNow_1>:
 c000cc4:	9901      	ldr	r1, [sp, #4]
 c000cc6:	6131      	str	r1, [r6, #16]
 c000cc8:	6038      	str	r0, [r7, #0]
 c000cca:	9801      	ldr	r0, [sp, #4]
 c000ccc:	bdfe      	pop	{r1, r2, r3, r4, r5, r6, r7, pc}

0c000cce <??prvSampleTimeNow_2>:
 c000cce:	6060      	str	r0, [r4, #4]
 c000cd0:	6124      	str	r4, [r4, #16]
 c000cd2:	1d21      	adds	r1, r4, #4
 c000cd4:	6830      	ldr	r0, [r6, #0]
 c000cd6:	f7ff fe01 	bl	c0008dc <vListInsert>

0c000cda <??prvSampleTimeNow_0>:
 c000cda:	6830      	ldr	r0, [r6, #0]
 c000cdc:	6801      	ldr	r1, [r0, #0]
 c000cde:	b189      	cbz	r1, c000d04 <??prvSampleTimeNow_3>
 c000ce0:	68c0      	ldr	r0, [r0, #12]
 c000ce2:	6805      	ldr	r5, [r0, #0]
 c000ce4:	f7ff ffd2 	bl	c000c8c <?Subroutine6>

0c000ce8 <??CrossCallReturnLabel_11>:
 c000ce8:	0020      	movs	r0, r4
 c000cea:	6a21      	ldr	r1, [r4, #32]
 c000cec:	4788      	blx	r1
 c000cee:	2028      	movs	r0, #40	; 0x28
 c000cf0:	5c20      	ldrb	r0, [r4, r0]
 c000cf2:	0740      	lsls	r0, r0, #29
 c000cf4:	d5f1      	bpl.n	c000cda <??prvSampleTimeNow_0>
 c000cf6:	69a0      	ldr	r0, [r4, #24]
 c000cf8:	1828      	adds	r0, r5, r0
 c000cfa:	4285      	cmp	r5, r0
 c000cfc:	d3e7      	bcc.n	c000cce <??prvSampleTimeNow_2>
 c000cfe:	f000 f809 	bl	c000d14 <?Subroutine2>

0c000d02 <??CrossCallReturnLabel_1>:
 c000d02:	e7ea      	b.n	c000cda <??prvSampleTimeNow_0>

0c000d04 <??prvSampleTimeNow_3>:
 c000d04:	6871      	ldr	r1, [r6, #4]
 c000d06:	6031      	str	r1, [r6, #0]
 c000d08:	6070      	str	r0, [r6, #4]
 c000d0a:	2001      	movs	r0, #1
 c000d0c:	e7da      	b.n	c000cc4 <??prvSampleTimeNow_1>
	...

0c000d10 <??DataTable5>:
 c000d10:	0b45 0c00                                   E...

0c000d14 <?Subroutine2>:
 c000d14:	2000      	movs	r0, #0
 c000d16:	9000      	str	r0, [sp, #0]
 c000d18:	2300      	movs	r3, #0
 c000d1a:	002a      	movs	r2, r5
 c000d1c:	2100      	movs	r1, #0
 c000d1e:	0020      	movs	r0, r4
 c000d20:	e6b6      	b.n	c000a90 <xTimerGenericCommand>

0c000d22 <prvInsertTimerInActiveList>:
 c000d22:	b538      	push	{r3, r4, r5, lr}
 c000d24:	2400      	movs	r4, #0
 c000d26:	6041      	str	r1, [r0, #4]
 c000d28:	6100      	str	r0, [r0, #16]
 c000d2a:	4d19      	ldr	r5, [pc, #100]	; (c000d90 <??DataTable8>)
 c000d2c:	428a      	cmp	r2, r1
 c000d2e:	d306      	bcc.n	c000d3e <??prvInsertTimerInActiveList_0>
 c000d30:	1ad1      	subs	r1, r2, r3
 c000d32:	6982      	ldr	r2, [r0, #24]
 c000d34:	4291      	cmp	r1, r2
 c000d36:	d206      	bcs.n	c000d46 <??prvInsertTimerInActiveList_1>
 c000d38:	1d01      	adds	r1, r0, #4
 c000d3a:	6868      	ldr	r0, [r5, #4]
 c000d3c:	e007      	b.n	c000d4e <??prvInsertTimerInActiveList_2>

0c000d3e <??prvInsertTimerInActiveList_0>:
 c000d3e:	429a      	cmp	r2, r3
 c000d40:	d203      	bcs.n	c000d4a <??prvInsertTimerInActiveList_3>
 c000d42:	4299      	cmp	r1, r3
 c000d44:	d301      	bcc.n	c000d4a <??prvInsertTimerInActiveList_3>

0c000d46 <??prvInsertTimerInActiveList_1>:
 c000d46:	2401      	movs	r4, #1
 c000d48:	e003      	b.n	c000d52 <??prvInsertTimerInActiveList_4>

0c000d4a <??prvInsertTimerInActiveList_3>:
 c000d4a:	1d01      	adds	r1, r0, #4
 c000d4c:	6828      	ldr	r0, [r5, #0]

0c000d4e <??prvInsertTimerInActiveList_2>:
 c000d4e:	f7ff fdc5 	bl	c0008dc <vListInsert>

0c000d52 <??prvInsertTimerInActiveList_4>:
 c000d52:	0020      	movs	r0, r4
 c000d54:	bd32      	pop	{r1, r4, r5, pc}

0c000d56 <prvCheckForValidListAndQueue>:
 c000d56:	b510      	push	{r4, lr}
 c000d58:	f7ff fe34 	bl	c0009c4 <vPortEnterCritical>
 c000d5c:	4c0c      	ldr	r4, [pc, #48]	; (c000d90 <??DataTable8>)
 c000d5e:	68a0      	ldr	r0, [r4, #8]
 c000d60:	b998      	cbnz	r0, c000d8a <??prvCheckForValidListAndQueue_0>
 c000d62:	0020      	movs	r0, r4
 c000d64:	3014      	adds	r0, #20
 c000d66:	f7ff fd9b 	bl	c0008a0 <vListInitialise>
 c000d6a:	0020      	movs	r0, r4
 c000d6c:	3028      	adds	r0, #40	; 0x28
 c000d6e:	f7ff fd97 	bl	c0008a0 <vListInitialise>
 c000d72:	0020      	movs	r0, r4
 c000d74:	3014      	adds	r0, #20
 c000d76:	6020      	str	r0, [r4, #0]
 c000d78:	0020      	movs	r0, r4
 c000d7a:	3028      	adds	r0, #40	; 0x28
 c000d7c:	6060      	str	r0, [r4, #4]
 c000d7e:	2200      	movs	r2, #0
 c000d80:	2110      	movs	r1, #16
 c000d82:	200a      	movs	r0, #10
 c000d84:	f000 f9df 	bl	c001146 <xQueueGenericCreate>
 c000d88:	60a0      	str	r0, [r4, #8]

0c000d8a <??prvCheckForValidListAndQueue_0>:
 c000d8a:	f7ff fe27 	bl	c0009dc <vPortExitCritical>
 c000d8e:	bd10      	pop	{r4, pc}

0c000d90 <??DataTable8>:
 c000d90:	999c 0008                                   ....

0c000d94 <?Veneer 16 (3) for SYSTIMER_TickGet>:
 c000d94:	b408      	push	{r3}
 c000d96:	4b02      	ldr	r3, [pc, #8]	; (c000da0 <?Veneer 16 (3) for SYSTIMER_TickGet+0xc>)
 c000d98:	469c      	mov	ip, r3
 c000d9a:	bc08      	pop	{r3}
 c000d9c:	4760      	bx	ip
 c000d9e:	46c0      	nop			; (mov r8, r8)
 c000da0:	00003885 	.word	0x00003885

0c000da4 <?Veneer 25 (3) for SOCPS_AONTimerCmd>:
 c000da4:	b408      	push	{r3}
 c000da6:	4b02      	ldr	r3, [pc, #8]	; (c000db0 <?Veneer 25 (3) for SOCPS_AONTimerCmd+0xc>)
 c000da8:	469c      	mov	ip, r3
 c000daa:	bc08      	pop	{r3}
 c000dac:	4760      	bx	ip
 c000dae:	46c0      	nop			; (mov r8, r8)
 c000db0:	000835df 	.word	0x000835df

0c000db4 <?Veneer 33 (3) for BKUP_Read>:
 c000db4:	b408      	push	{r3}
 c000db6:	4b02      	ldr	r3, [pc, #8]	; (c000dc0 <?Veneer 33 (3) for BKUP_Read+0xc>)
 c000db8:	469c      	mov	ip, r3
 c000dba:	bc08      	pop	{r3}
 c000dbc:	4760      	bx	ip
 c000dbe:	46c0      	nop			; (mov r8, r8)
 c000dc0:	00001435 	.word	0x00001435

0c000dc4 <?Veneer 46 (3) for SOCPS_AONTimer>:
 c000dc4:	b408      	push	{r3}
 c000dc6:	4b02      	ldr	r3, [pc, #8]	; (c000dd0 <?Veneer 46 (3) for SOCPS_AONTimer+0xc>)
 c000dc8:	469c      	mov	ip, r3
 c000dca:	bc08      	pop	{r3}
 c000dcc:	4760      	bx	ip
 c000dce:	46c0      	nop			; (mov r8, r8)
 c000dd0:	000835b5 	.word	0x000835b5

0c000dd4 <?Veneer 92 (3) for SOCPS_SetWakeEventAON>:
 c000dd4:	b408      	push	{r3}
 c000dd6:	4b02      	ldr	r3, [pc, #8]	; (c000de0 <?Veneer 92 (3) for SOCPS_SetWakeEventAON+0xc>)
 c000dd8:	469c      	mov	ip, r3
 c000dda:	bc08      	pop	{r3}
 c000ddc:	4760      	bx	ip
 c000dde:	46c0      	nop			; (mov r8, r8)
 c000de0:	000839f9 	.word	0x000839f9

0c000de4 <?Veneer 95 (3) for SOCPS_SWRLDO_Suspend>:
 c000de4:	b408      	push	{r3}
 c000de6:	4b02      	ldr	r3, [pc, #8]	; (c000df0 <?Veneer 95 (3) for SOCPS_SWRLDO_Suspend+0xc>)
 c000de8:	469c      	mov	ip, r3
 c000dea:	bc08      	pop	{r3}
 c000dec:	4760      	bx	ip
 c000dee:	46c0      	nop			; (mov r8, r8)
 c000df0:	00083a9b 	.word	0x00083a9b

0c000df4 <?Veneer 96 (3) for SOCPS_SleepCG>:
 c000df4:	b408      	push	{r3}
 c000df6:	4b02      	ldr	r3, [pc, #8]	; (c000e00 <?Veneer 96 (3) for SOCPS_SleepCG+0xc>)
 c000df8:	469c      	mov	ip, r3
 c000dfa:	bc08      	pop	{r3}
 c000dfc:	4760      	bx	ip
 c000dfe:	46c0      	nop			; (mov r8, r8)
 c000e00:	00083841 	.word	0x00083841

0c000e04 <pmu_exec_sleep_hook_funs>:
 c000e04:	b530      	push	{r4, r5, lr}
 c000e06:	b081      	sub	sp, #4
 c000e08:	2400      	movs	r4, #0
 c000e0a:	4d8f      	ldr	r5, [pc, #572]	; (c001048 <.text_25>)
 c000e0c:	682a      	ldr	r2, [r5, #0]
 c000e0e:	b11a      	cbz	r2, c000e18 <pmu_exec_sleep_hook_funs+0x14>
 c000e10:	6869      	ldr	r1, [r5, #4]
 c000e12:	2000      	movs	r0, #0
 c000e14:	4790      	blx	r2
 c000e16:	b118      	cbz	r0, c000e20 <pmu_exec_sleep_hook_funs+0x1c>
 c000e18:	1c64      	adds	r4, r4, #1
 c000e1a:	3514      	adds	r5, #20
 c000e1c:	2c1f      	cmp	r4, #31
 c000e1e:	d3f5      	bcc.n	c000e0c <pmu_exec_sleep_hook_funs+0x8>
 c000e20:	0020      	movs	r0, r4
 c000e22:	b001      	add	sp, #4
 c000e24:	bd30      	pop	{r4, r5, pc}

0c000e26 <pmu_exec_wakeup_hook_funs>:
 c000e26:	b530      	push	{r4, r5, lr}
 c000e28:	b081      	sub	sp, #4
 c000e2a:	0004      	movs	r4, r0
 c000e2c:	d008      	beq.n	c000e40 <pmu_exec_wakeup_hook_funs+0x1a>
 c000e2e:	4d90      	ldr	r5, [pc, #576]	; (c001070 <.text_29>)
 c000e30:	682a      	ldr	r2, [r5, #0]
 c000e32:	b112      	cbz	r2, c000e3a <pmu_exec_wakeup_hook_funs+0x14>
 c000e34:	6869      	ldr	r1, [r5, #4]
 c000e36:	2000      	movs	r0, #0
 c000e38:	4790      	blx	r2
 c000e3a:	3514      	adds	r5, #20
 c000e3c:	1e64      	subs	r4, r4, #1
 c000e3e:	d1f7      	bne.n	c000e30 <pmu_exec_wakeup_hook_funs+0xa>
 c000e40:	b001      	add	sp, #4
 c000e42:	bd30      	pop	{r4, r5, pc}

0c000e44 <freertos_systick_check>:
 c000e44:	4281      	cmp	r1, r0
 c000e46:	d201      	bcs.n	c000e4c <freertos_systick_check+0x8>
 c000e48:	1a42      	subs	r2, r0, r1
 c000e4a:	e000      	b.n	c000e4e <freertos_systick_check+0xa>
 c000e4c:	1a0a      	subs	r2, r1, r0
 c000e4e:	4b8d      	ldr	r3, [pc, #564]	; (c001084 <.text_34>)
 c000e50:	429a      	cmp	r2, r3
 c000e52:	d201      	bcs.n	c000e58 <freertos_systick_check+0x14>
 c000e54:	4288      	cmp	r0, r1
 c000e56:	e000      	b.n	c000e5a <freertos_systick_check+0x16>
 c000e58:	4281      	cmp	r1, r0
 c000e5a:	4180      	sbcs	r0, r0
 c000e5c:	43c0      	mvns	r0, r0
 c000e5e:	0fc0      	lsrs	r0, r0, #31
 c000e60:	4770      	bx	lr

0c000e62 <pmu_set_sysactive_time>:
 c000e62:	b538      	push	{r3, r4, r5, lr}
 c000e64:	0005      	movs	r5, r0
 c000e66:	4c88      	ldr	r4, [pc, #544]	; (c001088 <.text_35>)
 c000e68:	6920      	ldr	r0, [r4, #16]
 c000e6a:	6961      	ldr	r1, [r4, #20]
 c000e6c:	b131      	cbz	r1, c000e7c <pmu_set_sysactive_time+0x1a>
 c000e6e:	6920      	ldr	r0, [r4, #16]
 c000e70:	4285      	cmp	r5, r0
 c000e72:	d200      	bcs.n	c000e76 <pmu_set_sysactive_time+0x14>
 c000e74:	0005      	movs	r5, r0
 c000e76:	6125      	str	r5, [r4, #16]
 c000e78:	2001      	movs	r0, #1
 c000e7a:	bd32      	pop	{r1, r4, r5, pc}
 c000e7c:	4285      	cmp	r5, r0
 c000e7e:	d200      	bcs.n	c000e82 <pmu_set_sysactive_time+0x20>
 c000e80:	0005      	movs	r5, r0
 c000e82:	2000      	movs	r0, #0
 c000e84:	6120      	str	r0, [r4, #16]
 c000e86:	f7ff faca 	bl	c00041e <xTaskGetTickCount>
 c000e8a:	1945      	adds	r5, r0, r5
 c000e8c:	68a1      	ldr	r1, [r4, #8]
 c000e8e:	0028      	movs	r0, r5
 c000e90:	f7ff ffd8 	bl	c000e44 <freertos_systick_check>
 c000e94:	b100      	cbz	r0, c000e98 <pmu_set_sysactive_time+0x36>
 c000e96:	60a5      	str	r5, [r4, #8]
 c000e98:	2000      	movs	r0, #0
 c000e9a:	bd32      	pop	{r1, r4, r5, pc}

0c000e9c <freertos_ready_to_sleep>:
 c000e9c:	b530      	push	{r4, r5, lr}
 c000e9e:	b081      	sub	sp, #4
 c000ea0:	f7ff fabd 	bl	c00041e <xTaskGetTickCount>
 c000ea4:	0004      	movs	r4, r0
 c000ea6:	4d78      	ldr	r5, [pc, #480]	; (c001088 <.text_35>)
 c000ea8:	68a9      	ldr	r1, [r5, #8]
 c000eaa:	f7ff ffcb 	bl	c000e44 <freertos_systick_check>
 c000eae:	b1a8      	cbz	r0, c000edc <freertos_ready_to_sleep+0x40>
 c000eb0:	6868      	ldr	r0, [r5, #4]
 c000eb2:	b998      	cbnz	r0, c000edc <freertos_ready_to_sleep+0x40>
 c000eb4:	487b      	ldr	r0, [pc, #492]	; (c0010a4 <.text_45>)
 c000eb6:	6800      	ldr	r0, [r0, #0]
 c000eb8:	4284      	cmp	r4, r0
 c000eba:	d20f      	bcs.n	c000edc <freertos_ready_to_sleep+0x40>
 c000ebc:	2100      	movs	r1, #0
 c000ebe:	43c9      	mvns	r1, r1
 c000ec0:	4288      	cmp	r0, r1
 c000ec2:	d009      	beq.n	c000ed8 <freertos_ready_to_sleep+0x3c>
 c000ec4:	1b00      	subs	r0, r0, r4
 c000ec6:	f7ff ff7d 	bl	c000dc4 <?Veneer 46 (3) for SOCPS_AONTimer>
 c000eca:	2101      	movs	r1, #1
 c000ecc:	2002      	movs	r0, #2
 c000ece:	f7ff ff81 	bl	c000dd4 <?Veneer 92 (3) for SOCPS_SetWakeEventAON>
 c000ed2:	2001      	movs	r0, #1
 c000ed4:	f7ff ff66 	bl	c000da4 <?Veneer 25 (3) for SOCPS_AONTimerCmd>
 c000ed8:	2001      	movs	r0, #1
 c000eda:	e000      	b.n	c000ede <freertos_ready_to_sleep+0x42>
 c000edc:	2000      	movs	r0, #0
 c000ede:	b001      	add	sp, #4
 c000ee0:	bd30      	pop	{r4, r5, pc}

0c000ee2 <freertos_ready_to_dsleep>:
 c000ee2:	b500      	push	{lr}
 c000ee4:	b081      	sub	sp, #4
 c000ee6:	f7ff fa9a 	bl	c00041e <xTaskGetTickCount>
 c000eea:	496f      	ldr	r1, [pc, #444]	; (c0010a8 <.text_46>)
 c000eec:	684a      	ldr	r2, [r1, #4]
 c000eee:	4290      	cmp	r0, r2
 c000ef0:	d201      	bcs.n	c000ef6 <freertos_ready_to_dsleep+0x14>
 c000ef2:	2000      	movs	r0, #0
 c000ef4:	e003      	b.n	c000efe <freertos_ready_to_dsleep+0x1c>
 c000ef6:	6808      	ldr	r0, [r1, #0]
 c000ef8:	1e40      	subs	r0, r0, #1
 c000efa:	4180      	sbcs	r0, r0
 c000efc:	0fc0      	lsrs	r0, r0, #31
 c000efe:	b001      	add	sp, #4
 c000f00:	bd00      	pop	{pc}
	...

0c000f04 <freertos_pre_sleep_processing>:
 c000f04:	b5f0      	push	{r4, r5, r6, r7, lr}
 c000f06:	b081      	sub	sp, #4
 c000f08:	2500      	movs	r5, #0
 c000f0a:	9500      	str	r5, [sp, #0]
 c000f0c:	4967      	ldr	r1, [pc, #412]	; (c0010ac <.text_47>)
 c000f0e:	680f      	ldr	r7, [r1, #0]
 c000f10:	6005      	str	r5, [r0, #0]
 c000f12:	f7ff ff3f 	bl	c000d94 <?Veneer 16 (3) for SYSTIMER_TickGet>
 c000f16:	0006      	movs	r6, r0
 c000f18:	4c5b      	ldr	r4, [pc, #364]	; (c001088 <.text_35>)
 c000f1a:	2001      	movs	r0, #1
 c000f1c:	6160      	str	r0, [r4, #20]
 c000f1e:	f7ff ff61 	bl	c000de4 <?Veneer 95 (3) for SOCPS_SWRLDO_Suspend>
 c000f22:	f000 fdd3 	bl	c001acc <SOCPS_SleepInit>
 c000f26:	2000      	movs	r0, #0
 c000f28:	f7ff ff44 	bl	c000db4 <?Veneer 33 (3) for BKUP_Read>
 c000f2c:	0500      	lsls	r0, r0, #20
 c000f2e:	d409      	bmi.n	c000f44 <freertos_pre_sleep_processing+0x40>
 c000f30:	2066      	movs	r0, #102	; 0x66
 c000f32:	f7ff ff47 	bl	c000dc4 <?Veneer 46 (3) for SOCPS_AONTimer>
 c000f36:	2101      	movs	r1, #1
 c000f38:	2002      	movs	r0, #2
 c000f3a:	f7ff ff4b 	bl	c000dd4 <?Veneer 92 (3) for SOCPS_SetWakeEventAON>
 c000f3e:	2001      	movs	r0, #1
 c000f40:	f7ff ff30 	bl	c000da4 <?Veneer 25 (3) for SOCPS_AONTimerCmd>
 c000f44:	68e0      	ldr	r0, [r4, #12]
 c000f46:	b910      	cbnz	r0, c000f4e <freertos_pre_sleep_processing+0x4a>
 c000f48:	f000 fcd4 	bl	c0018f4 <SOCPS_SleepPG>
 c000f4c:	e001      	b.n	c000f52 <freertos_pre_sleep_processing+0x4e>
 c000f4e:	f7ff ff51 	bl	c000df4 <?Veneer 96 (3) for SOCPS_SleepCG>
 c000f52:	f7ff ff1f 	bl	c000d94 <?Veneer 16 (3) for SYSTIMER_TickGet>
 c000f56:	4286      	cmp	r6, r0
 c000f58:	d201      	bcs.n	c000f5e <freertos_pre_sleep_processing+0x5a>
 c000f5a:	1b80      	subs	r0, r0, r6
 c000f5c:	e003      	b.n	c000f66 <freertos_pre_sleep_processing+0x62>
 c000f5e:	2100      	movs	r1, #0
 c000f60:	43c9      	mvns	r1, r1
 c000f62:	1b89      	subs	r1, r1, r6
 c000f64:	1808      	adds	r0, r1, r0
 c000f66:	6821      	ldr	r1, [r4, #0]
 c000f68:	1840      	adds	r0, r0, r1
 c000f6a:	06c1      	lsls	r1, r0, #27
 c000f6c:	0ec9      	lsrs	r1, r1, #27
 c000f6e:	6021      	str	r1, [r4, #0]
 c000f70:	f240 31e8 	movw	r1, #1000	; 0x3e8
 c000f74:	0bc2      	lsrs	r2, r0, #15
 c000f76:	434a      	muls	r2, r1
 c000f78:	0440      	lsls	r0, r0, #17
 c000f7a:	0c40      	lsrs	r0, r0, #17
 c000f7c:	4348      	muls	r0, r1
 c000f7e:	0bc0      	lsrs	r0, r0, #15
 c000f80:	1810      	adds	r0, r2, r0
 c000f82:	9000      	str	r0, [sp, #0]
 c000f84:	9800      	ldr	r0, [sp, #0]
 c000f86:	f7ff fa4e 	bl	c000426 <vTaskStepTick>
 c000f8a:	4848      	ldr	r0, [pc, #288]	; (c0010ac <.text_47>)
 c000f8c:	6800      	ldr	r0, [r0, #0]
 c000f8e:	4949      	ldr	r1, [pc, #292]	; (c0010b4 <.text_52>)
 c000f90:	6889      	ldr	r1, [r1, #8]
 c000f92:	b161      	cbz	r1, c000fae <freertos_pre_sleep_processing+0xaa>
 c000f94:	4948      	ldr	r1, [pc, #288]	; (c0010b8 <.text_53>)
 c000f96:	6809      	ldr	r1, [r1, #0]
 c000f98:	0389      	lsls	r1, r1, #14
 c000f9a:	d508      	bpl.n	c000fae <freertos_pre_sleep_processing+0xaa>
 c000f9c:	1bc3      	subs	r3, r0, r7
 c000f9e:	0042      	lsls	r2, r0, #1
 c000fa0:	0852      	lsrs	r2, r2, #1
 c000fa2:	0079      	lsls	r1, r7, #1
 c000fa4:	0849      	lsrs	r1, r1, #1
 c000fa6:	bf00      	nop
 c000fa8:	a047      	add	r0, pc, #284	; (adr r0, c0010c8 <.text_61>)
 c000faa:	f7ff fcc5 	bl	c000938 <?Veneer 18 (3) for DiagPrintf>
 c000fae:	6165      	str	r5, [r4, #20]
 c000fb0:	f7ff fa35 	bl	c00041e <xTaskGetTickCount>
 c000fb4:	6921      	ldr	r1, [r4, #16]
 c000fb6:	2902      	cmp	r1, #2
 c000fb8:	d800      	bhi.n	c000fbc <freertos_pre_sleep_processing+0xb8>
 c000fba:	2102      	movs	r1, #2
 c000fbc:	1840      	adds	r0, r0, r1
 c000fbe:	60a0      	str	r0, [r4, #8]
 c000fc0:	6125      	str	r5, [r4, #16]
 c000fc2:	2000      	movs	r0, #0
 c000fc4:	f7ff ff0e 	bl	c000de4 <?Veneer 95 (3) for SOCPS_SWRLDO_Suspend>
 c000fc8:	b001      	add	sp, #4
 c000fca:	bdf0      	pop	{r4, r5, r6, r7, pc}

0c000fcc <vPortSuppressTicksAndSleep>:
 c000fcc:	b570      	push	{r4, r5, r6, lr}
 c000fce:	b082      	sub	sp, #8
 c000fd0:	0006      	movs	r6, r0
 c000fd2:	4c33      	ldr	r4, [pc, #204]	; (c0010a0 <.text_44>)
 c000fd4:	2000      	movs	r0, #0
 c000fd6:	6020      	str	r0, [r4, #0]
 c000fd8:	4d39      	ldr	r5, [pc, #228]	; (c0010c0 <.text_56>)
 c000fda:	6828      	ldr	r0, [r5, #0]
 c000fdc:	2101      	movs	r1, #1
 c000fde:	4388      	bics	r0, r1
 c000fe0:	6028      	str	r0, [r5, #0]
 c000fe2:	f7ff fcef 	bl	c0009c4 <vPortEnterCritical>
 c000fe6:	f7ff fb5b 	bl	c0006a0 <eTaskConfirmSleepModeStatus>
 c000fea:	b1c8      	cbz	r0, c001020 <vPortSuppressTicksAndSleep+0x54>
 c000fec:	f7ff ff56 	bl	c000e9c <freertos_ready_to_sleep>
 c000ff0:	b1b0      	cbz	r0, c001020 <vPortSuppressTicksAndSleep+0x54>
 c000ff2:	9600      	str	r6, [sp, #0]
 c000ff4:	4668      	mov	r0, sp
 c000ff6:	f7ff ff85 	bl	c000f04 <freertos_pre_sleep_processing>
 c000ffa:	9800      	ldr	r0, [sp, #0]
 c000ffc:	2800      	cmp	r0, #0
 c000ffe:	d004      	beq.n	c00100a <vPortSuppressTicksAndSleep+0x3e>
 c001000:	f3bf 8f4f 	dsb	sy
 c001004:	bf30      	wfi
 c001006:	f3bf 8f6f 	isb	sy
 c00100a:	482c      	ldr	r0, [pc, #176]	; (c0010bc <.text_54>)
 c00100c:	6800      	ldr	r0, [r0, #0]
 c00100e:	f240 31e8 	movw	r1, #1000	; 0x3e8
 c001012:	fbb0 f0f1 	udiv	r0, r0, r1
 c001016:	68a9      	ldr	r1, [r5, #8]
 c001018:	fbb1 f0f0 	udiv	r0, r1, r0
 c00101c:	1c40      	adds	r0, r0, #1
 c00101e:	9000      	str	r0, [sp, #0]
 c001020:	f7ff fcdc 	bl	c0009dc <vPortExitCritical>
 c001024:	2001      	movs	r0, #1
 c001026:	6829      	ldr	r1, [r5, #0]
 c001028:	4301      	orrs	r1, r0
 c00102a:	6029      	str	r1, [r5, #0]
 c00102c:	6020      	str	r0, [r4, #0]
 c00102e:	f000 ff88 	bl	c001f42 <km4_wake_event_update>
 c001032:	f000 ffaa 	bl	c001f8a <km4_get_wake_event>
 c001036:	b128      	cbz	r0, c001044 <vPortSuppressTicksAndSleep+0x78>
 c001038:	f7ff fcc4 	bl	c0009c4 <vPortEnterCritical>
 c00103c:	f000 ffa8 	bl	c001f90 <km4_resume>
 c001040:	f7ff fccc 	bl	c0009dc <vPortExitCritical>
 c001044:	b002      	add	sp, #8
 c001046:	bd70      	pop	{r4, r5, r6, pc}

0c001048 <.text_25>:
 c001048:	00089b1c 	.word	0x00089b1c

0c00104c <pmu_acquire_wakelock>:
 c00104c:	4918      	ldr	r1, [pc, #96]	; (c0010b0 <.text_48>)
 c00104e:	684a      	ldr	r2, [r1, #4]
 c001050:	2301      	movs	r3, #1
 c001052:	4083      	lsls	r3, r0
 c001054:	4313      	orrs	r3, r2
 c001056:	604b      	str	r3, [r1, #4]
 c001058:	4770      	bx	lr

0c00105a <pmu_release_wakelock>:
 c00105a:	4915      	ldr	r1, [pc, #84]	; (c0010b0 <.text_48>)
 c00105c:	684a      	ldr	r2, [r1, #4]
 c00105e:	2301      	movs	r3, #1
 c001060:	4083      	lsls	r3, r0
 c001062:	439a      	bics	r2, r3
 c001064:	604a      	str	r2, [r1, #4]
 c001066:	4770      	bx	lr

0c001068 <pmu_get_wakelock_status>:
 c001068:	4811      	ldr	r0, [pc, #68]	; (c0010b0 <.text_48>)
 c00106a:	6840      	ldr	r0, [r0, #4]
 c00106c:	4770      	bx	lr
	...

0c001070 <.text_29>:
 c001070:	00089b24 	.word	0x00089b24

0c001074 <pmu_set_sleep_type>:
 c001074:	490f      	ldr	r1, [pc, #60]	; (c0010b4 <.text_52>)
 c001076:	6909      	ldr	r1, [r1, #16]
 c001078:	b101      	cbz	r1, c00107c <pmu_set_sleep_type+0x8>
 c00107a:	2000      	movs	r0, #0
 c00107c:	490c      	ldr	r1, [pc, #48]	; (c0010b0 <.text_48>)
 c00107e:	60c8      	str	r0, [r1, #12]
 c001080:	2000      	movs	r0, #0
 c001082:	4770      	bx	lr

0c001084 <.text_34>:
 c001084:	7fffffff 	.word	0x7fffffff

0c001088 <.text_35>:
 c001088:	00084460 	.word	0x00084460

0c00108c <pmu_get_deepwakelock_status>:
 c00108c:	4806      	ldr	r0, [pc, #24]	; (c0010a8 <.text_46>)
 c00108e:	6800      	ldr	r0, [r0, #0]
 c001090:	4770      	bx	lr

0c001092 <pmu_tickless_debug>:
 c001092:	2801      	cmp	r0, #1
 c001094:	d000      	beq.n	c001098 <pmu_tickless_debug+0x6>
 c001096:	2000      	movs	r0, #0
 c001098:	490a      	ldr	r1, [pc, #40]	; (c0010c4 <.text_58>)
 c00109a:	6008      	str	r0, [r1, #0]
 c00109c:	4770      	bx	lr
	...

0c0010a0 <.text_44>:
 c0010a0:	00084478 	.word	0x00084478

0c0010a4 <.text_45>:
 c0010a4:	00083dec 	.word	0x00083dec

0c0010a8 <.text_46>:
 c0010a8:	0008447c 	.word	0x0008447c

0c0010ac <.text_47>:
 c0010ac:	48000098 	.word	0x48000098

0c0010b0 <.text_48>:
 c0010b0:	00084460 	.word	0x00084460

0c0010b4 <.text_52>:
 c0010b4:	0008441c 	.word	0x0008441c

0c0010b8 <.text_53>:
 c0010b8:	000801cc 	.word	0x000801cc

0c0010bc <.text_54>:
 c0010bc:	00084454 	.word	0x00084454

0c0010c0 <.text_56>:
 c0010c0:	e000e010 	.word	0xe000e010

0c0010c4 <.text_58>:
 c0010c4:	00089b14 	.word	0x00089b14

0c0010c8 <.text_61>:
 c0010c8:	20306d0d 	.word	0x20306d0d
 c0010cc:	7320736f 	.word	0x7320736f
 c0010d0:	7065656c 	.word	0x7065656c
 c0010d4:	5b3a6465 	.word	0x5b3a6465
 c0010d8:	3e2d6425 	.word	0x3e2d6425
 c0010dc:	253a6425 	.word	0x253a6425
 c0010e0:	75205d64 	.word	0x75205d64
 c0010e4:	00000a73 	.word	0x00000a73

0c0010e8 <xQueueGenericReset>:
 c0010e8:	b538      	push	{r3, r4, r5, lr}
 c0010ea:	0005      	movs	r5, r0
 c0010ec:	000c      	movs	r4, r1
 c0010ee:	f7ff fc69 	bl	c0009c4 <vPortEnterCritical>
 c0010f2:	6c29      	ldr	r1, [r5, #64]	; 0x40
 c0010f4:	6bea      	ldr	r2, [r5, #60]	; 0x3c
 c0010f6:	682b      	ldr	r3, [r5, #0]
 c0010f8:	0010      	movs	r0, r2
 c0010fa:	4348      	muls	r0, r1
 c0010fc:	1818      	adds	r0, r3, r0
 c0010fe:	60a8      	str	r0, [r5, #8]
 c001100:	2000      	movs	r0, #0
 c001102:	63a8      	str	r0, [r5, #56]	; 0x38
 c001104:	606b      	str	r3, [r5, #4]
 c001106:	1e52      	subs	r2, r2, #1
 c001108:	434a      	muls	r2, r1
 c00110a:	1898      	adds	r0, r3, r2
 c00110c:	60e8      	str	r0, [r5, #12]
 c00110e:	0028      	movs	r0, r5
 c001110:	3044      	adds	r0, #68	; 0x44
 c001112:	2100      	movs	r1, #0
 c001114:	43c9      	mvns	r1, r1
 c001116:	7001      	strb	r1, [r0, #0]
 c001118:	7041      	strb	r1, [r0, #1]
 c00111a:	b944      	cbnz	r4, c00112e <??xQueueGenericReset_0>
 c00111c:	6928      	ldr	r0, [r5, #16]
 c00111e:	b170      	cbz	r0, c00113e <??xQueueGenericReset_1>
 c001120:	0028      	movs	r0, r5
 c001122:	f000 f9e2 	bl	c0014ea <??Subroutine2_0>

0c001126 <??CrossCallReturnLabel_5>:
 c001126:	b150      	cbz	r0, c00113e <??xQueueGenericReset_1>
 c001128:	f7ff fc46 	bl	c0009b8 <vPortYield>
 c00112c:	e007      	b.n	c00113e <??xQueueGenericReset_1>

0c00112e <??xQueueGenericReset_0>:
 c00112e:	0028      	movs	r0, r5
 c001130:	3010      	adds	r0, #16
 c001132:	f7ff fbb5 	bl	c0008a0 <vListInitialise>
 c001136:	0028      	movs	r0, r5
 c001138:	3024      	adds	r0, #36	; 0x24
 c00113a:	f7ff fbb1 	bl	c0008a0 <vListInitialise>

0c00113e <??xQueueGenericReset_1>:
 c00113e:	f7ff fc4d 	bl	c0009dc <vPortExitCritical>
 c001142:	2001      	movs	r0, #1
 c001144:	bd32      	pop	{r1, r4, r5, pc}

0c001146 <xQueueGenericCreate>:
 c001146:	b5f8      	push	{r3, r4, r5, r6, r7, lr}
 c001148:	0004      	movs	r4, r0
 c00114a:	000e      	movs	r6, r1
 c00114c:	0017      	movs	r7, r2
 c00114e:	b90e      	cbnz	r6, c001154 <??xQueueGenericCreate_0>
 c001150:	2054      	movs	r0, #84	; 0x54
 c001152:	e001      	b.n	c001158 <??xQueueGenericCreate_1>

0c001154 <??xQueueGenericCreate_0>:
 c001154:	4370      	muls	r0, r6
 c001156:	3054      	adds	r0, #84	; 0x54

0c001158 <??xQueueGenericCreate_1>:
 c001158:	f7fe ff68 	bl	c00002c <pvPortMalloc>
 c00115c:	0005      	movs	r5, r0
 c00115e:	d00e      	beq.n	c00117e <??xQueueGenericCreate_2>
 c001160:	b90e      	cbnz	r6, c001166 <??xQueueGenericCreate_3>
 c001162:	602d      	str	r5, [r5, #0]
 c001164:	e001      	b.n	c00116a <??xQueueGenericCreate_4>

0c001166 <??xQueueGenericCreate_3>:
 c001166:	3054      	adds	r0, #84	; 0x54
 c001168:	6028      	str	r0, [r5, #0]

0c00116a <??xQueueGenericCreate_4>:
 c00116a:	63ec      	str	r4, [r5, #60]	; 0x3c
 c00116c:	642e      	str	r6, [r5, #64]	; 0x40
 c00116e:	2101      	movs	r1, #1
 c001170:	0028      	movs	r0, r5
 c001172:	f7ff ffb9 	bl	c0010e8 <xQueueGenericReset>
 c001176:	2050      	movs	r0, #80	; 0x50
 c001178:	542f      	strb	r7, [r5, r0]
 c00117a:	2000      	movs	r0, #0
 c00117c:	64a8      	str	r0, [r5, #72]	; 0x48

0c00117e <??xQueueGenericCreate_2>:
 c00117e:	0028      	movs	r0, r5
 c001180:	bdf2      	pop	{r1, r4, r5, r6, r7, pc}

0c001182 <xQueueGenericSend>:
 c001182:	b57f      	push	{r0, r1, r2, r3, r4, r5, r6, lr}
 c001184:	b082      	sub	sp, #8
 c001186:	2500      	movs	r5, #0
 c001188:	0004      	movs	r4, r0
 c00118a:	001e      	movs	r6, r3
 c00118c:	e028      	b.n	c0011e0 <??xQueueGenericSend_0>

0c00118e <??xQueueGenericSend_1>:
 c00118e:	9804      	ldr	r0, [sp, #16]
 c001190:	2800      	cmp	r0, #0
 c001192:	d049      	beq.n	c001228 <??xQueueGenericSend_2>
 c001194:	b91d      	cbnz	r5, c00119e <??xQueueGenericSend_3>
 c001196:	4668      	mov	r0, sp
 c001198:	f7ff fa22 	bl	c0005e0 <vTaskInternalSetTimeOutState>
 c00119c:	2501      	movs	r5, #1

0c00119e <??xQueueGenericSend_3>:
 c00119e:	f7ff fc1d 	bl	c0009dc <vPortExitCritical>
 c0011a2:	f7ff f8e7 	bl	c000374 <vTaskSuspendAll>
 c0011a6:	f7ff fc0d 	bl	c0009c4 <vPortEnterCritical>
 c0011aa:	0020      	movs	r0, r4
 c0011ac:	3044      	adds	r0, #68	; 0x44
 c0011ae:	2144      	movs	r1, #68	; 0x44
 c0011b0:	5661      	ldrsb	r1, [r4, r1]
 c0011b2:	2200      	movs	r2, #0
 c0011b4:	43d2      	mvns	r2, r2
 c0011b6:	4291      	cmp	r1, r2
 c0011b8:	d101      	bne.n	c0011be <??xQueueGenericSend_4>
 c0011ba:	2100      	movs	r1, #0
 c0011bc:	7001      	strb	r1, [r0, #0]

0c0011be <??xQueueGenericSend_4>:
 c0011be:	2101      	movs	r1, #1
 c0011c0:	5641      	ldrsb	r1, [r0, r1]
 c0011c2:	f000 f982 	bl	c0014ca <?Subroutine11>

0c0011c6 <??CrossCallReturnLabel_53>:
 c0011c6:	f000 f846 	bl	c001256 <?Subroutine13>

0c0011ca <??CrossCallReturnLabel_59>:
 c0011ca:	2800      	cmp	r0, #0
 c0011cc:	d13e      	bne.n	c00124c <??xQueueGenericSend_5>
 c0011ce:	0020      	movs	r0, r4
 c0011d0:	f000 fa1f 	bl	c001612 <prvIsQueueFull>
 c0011d4:	2800      	cmp	r0, #0
 c0011d6:	d12b      	bne.n	c001230 <??xQueueGenericSend_6>
 c0011d8:	f000 f984 	bl	c0014e4 <?Subroutine5>

0c0011dc <??CrossCallReturnLabel_29>:
 c0011dc:	f7ff f8e1 	bl	c0003a2 <xTaskResumeAll>

0c0011e0 <??xQueueGenericSend_0>:
 c0011e0:	f7ff fbf0 	bl	c0009c4 <vPortEnterCritical>
 c0011e4:	f000 fa1f 	bl	c001626 <?Subroutine14>

0c0011e8 <??CrossCallReturnLabel_60>:
 c0011e8:	d301      	bcc.n	c0011ee <??xQueueGenericSend_7>
 c0011ea:	2e02      	cmp	r6, #2
 c0011ec:	d1cf      	bne.n	c00118e <??xQueueGenericSend_1>

0c0011ee <??xQueueGenericSend_7>:
 c0011ee:	9903      	ldr	r1, [sp, #12]
 c0011f0:	6ba5      	ldr	r5, [r4, #56]	; 0x38
 c0011f2:	0032      	movs	r2, r6
 c0011f4:	0020      	movs	r0, r4
 c0011f6:	f000 f986 	bl	c001506 <prvCopyDataToQueue>
 c0011fa:	0021      	movs	r1, r4
 c0011fc:	3144      	adds	r1, #68	; 0x44
 c0011fe:	6849      	ldr	r1, [r1, #4]
 c001200:	b131      	cbz	r1, c001210 <??xQueueGenericSend_8>
 c001202:	2e02      	cmp	r6, #2
 c001204:	d100      	bne.n	c001208 <??xQueueGenericSend_9>
 c001206:	b955      	cbnz	r5, c00121e <??xQueueGenericSend_10>

0c001208 <??xQueueGenericSend_9>:
 c001208:	0031      	movs	r1, r6
 c00120a:	f000 f884 	bl	c001316 <??Subroutine9_0>

0c00120e <??CrossCallReturnLabel_43>:
 c00120e:	e003      	b.n	c001218 <??CrossCallReturnLabel_15>

0c001210 <??xQueueGenericSend_8>:
 c001210:	6a61      	ldr	r1, [r4, #36]	; 0x24
 c001212:	b109      	cbz	r1, c001218 <??CrossCallReturnLabel_15>
 c001214:	f000 f96f 	bl	c0014f6 <?Subroutine3>

0c001218 <??CrossCallReturnLabel_15>:
 c001218:	b108      	cbz	r0, c00121e <??xQueueGenericSend_10>
 c00121a:	f7ff fbcd 	bl	c0009b8 <vPortYield>

0c00121e <??xQueueGenericSend_10>:
 c00121e:	f7ff fbdd 	bl	c0009dc <vPortExitCritical>
 c001222:	2001      	movs	r0, #1

0c001224 <??xQueueGenericSend_11>:
 c001224:	b006      	add	sp, #24
 c001226:	bd70      	pop	{r4, r5, r6, pc}

0c001228 <??xQueueGenericSend_2>:
 c001228:	f7ff fbd8 	bl	c0009dc <vPortExitCritical>

0c00122c <??xQueueGenericSend_12>:
 c00122c:	2000      	movs	r0, #0
 c00122e:	e7f9      	b.n	c001224 <??xQueueGenericSend_11>

0c001230 <??xQueueGenericSend_6>:
 c001230:	9904      	ldr	r1, [sp, #16]
 c001232:	0020      	movs	r0, r4
 c001234:	3010      	adds	r0, #16
 c001236:	f7ff f980 	bl	c00053a <vTaskPlaceOnEventList>
 c00123a:	f000 f953 	bl	c0014e4 <?Subroutine5>

0c00123e <??CrossCallReturnLabel_28>:
 c00123e:	f7ff f8b0 	bl	c0003a2 <xTaskResumeAll>
 c001242:	2800      	cmp	r0, #0
 c001244:	d1cc      	bne.n	c0011e0 <??xQueueGenericSend_0>
 c001246:	f7ff fbb7 	bl	c0009b8 <vPortYield>
 c00124a:	e7c9      	b.n	c0011e0 <??xQueueGenericSend_0>

0c00124c <??xQueueGenericSend_5>:
 c00124c:	f000 f94a 	bl	c0014e4 <?Subroutine5>

0c001250 <??CrossCallReturnLabel_27>:
 c001250:	f7ff f8a7 	bl	c0003a2 <xTaskResumeAll>
 c001254:	e7ea      	b.n	c00122c <??xQueueGenericSend_12>

0c001256 <?Subroutine13>:
 c001256:	a904      	add	r1, sp, #16

0c001258 <??Subroutine13_0>:
 c001258:	4668      	mov	r0, sp
 c00125a:	f7ff b9c7 	b.w	c0005ec <xTaskCheckForTimeOut>

0c00125e <xQueueGenericSendFromISR>:
 c00125e:	b5fe      	push	{r1, r2, r3, r4, r5, r6, r7, lr}
 c001260:	0004      	movs	r4, r0
 c001262:	000d      	movs	r5, r1
 c001264:	0017      	movs	r7, r2
 c001266:	f010 fb7f 	bl	c011968 <ulSetInterruptMaskFromISR>
 c00126a:	9000      	str	r0, [sp, #0]
 c00126c:	f000 f9db 	bl	c001626 <?Subroutine14>

0c001270 <??CrossCallReturnLabel_61>:
 c001270:	d302      	bcc.n	c001278 <??xQueueGenericSendFromISR_0>
 c001272:	9802      	ldr	r0, [sp, #8]
 c001274:	2802      	cmp	r0, #2
 c001276:	d11d      	bne.n	c0012b4 <??xQueueGenericSendFromISR_1>

0c001278 <??xQueueGenericSendFromISR_0>:
 c001278:	0029      	movs	r1, r5
 c00127a:	2045      	movs	r0, #69	; 0x45
 c00127c:	5626      	ldrsb	r6, [r4, r0]
 c00127e:	9a02      	ldr	r2, [sp, #8]
 c001280:	0020      	movs	r0, r4
 c001282:	f000 f940 	bl	c001506 <prvCopyDataToQueue>
 c001286:	2501      	movs	r5, #1
 c001288:	2000      	movs	r0, #0
 c00128a:	43c0      	mvns	r0, r0
 c00128c:	4286      	cmp	r6, r0
 c00128e:	d10d      	bne.n	c0012ac <??xQueueGenericSendFromISR_2>
 c001290:	6ca0      	ldr	r0, [r4, #72]	; 0x48
 c001292:	b118      	cbz	r0, c00129c <??xQueueGenericSendFromISR_3>
 c001294:	9902      	ldr	r1, [sp, #8]
 c001296:	f000 f83e 	bl	c001316 <??Subroutine9_0>

0c00129a <??CrossCallReturnLabel_42>:
 c00129a:	e003      	b.n	c0012a4 <??CrossCallReturnLabel_14>

0c00129c <??xQueueGenericSendFromISR_3>:
 c00129c:	6a60      	ldr	r0, [r4, #36]	; 0x24
 c00129e:	b150      	cbz	r0, c0012b6 <??xQueueGenericSendFromISR_4>
 c0012a0:	f000 f929 	bl	c0014f6 <?Subroutine3>

0c0012a4 <??CrossCallReturnLabel_14>:
 c0012a4:	b138      	cbz	r0, c0012b6 <??xQueueGenericSendFromISR_4>
 c0012a6:	b137      	cbz	r7, c0012b6 <??xQueueGenericSendFromISR_4>
 c0012a8:	603d      	str	r5, [r7, #0]
 c0012aa:	e004      	b.n	c0012b6 <??xQueueGenericSendFromISR_4>

0c0012ac <??xQueueGenericSendFromISR_2>:
 c0012ac:	1c76      	adds	r6, r6, #1
 c0012ae:	2045      	movs	r0, #69	; 0x45
 c0012b0:	5426      	strb	r6, [r4, r0]
 c0012b2:	e000      	b.n	c0012b6 <??xQueueGenericSendFromISR_4>

0c0012b4 <??xQueueGenericSendFromISR_1>:
 c0012b4:	2500      	movs	r5, #0

0c0012b6 <??xQueueGenericSendFromISR_4>:
 c0012b6:	9800      	ldr	r0, [sp, #0]
 c0012b8:	f010 fb5a 	bl	c011970 <vClearInterruptMaskFromISR>
 c0012bc:	0028      	movs	r0, r5
 c0012be:	bdfe      	pop	{r1, r2, r3, r4, r5, r6, r7, pc}

0c0012c0 <xQueueGiveFromISR>:
 c0012c0:	b5f8      	push	{r3, r4, r5, r6, r7, lr}
 c0012c2:	0004      	movs	r4, r0
 c0012c4:	000e      	movs	r6, r1
 c0012c6:	f010 fb4f 	bl	c011968 <ulSetInterruptMaskFromISR>
 c0012ca:	0007      	movs	r7, r0
 c0012cc:	6ba1      	ldr	r1, [r4, #56]	; 0x38
 c0012ce:	6be0      	ldr	r0, [r4, #60]	; 0x3c
 c0012d0:	4281      	cmp	r1, r0
 c0012d2:	d219      	bcs.n	c001308 <??xQueueGiveFromISR_0>
 c0012d4:	2045      	movs	r0, #69	; 0x45
 c0012d6:	5620      	ldrsb	r0, [r4, r0]
 c0012d8:	1c49      	adds	r1, r1, #1
 c0012da:	63a1      	str	r1, [r4, #56]	; 0x38
 c0012dc:	2501      	movs	r5, #1
 c0012de:	2100      	movs	r1, #0
 c0012e0:	43c9      	mvns	r1, r1
 c0012e2:	4288      	cmp	r0, r1
 c0012e4:	d10c      	bne.n	c001300 <??xQueueGiveFromISR_1>
 c0012e6:	6ca0      	ldr	r0, [r4, #72]	; 0x48
 c0012e8:	b110      	cbz	r0, c0012f0 <??xQueueGiveFromISR_2>
 c0012ea:	f000 f813 	bl	c001314 <?Subroutine9>

0c0012ee <??CrossCallReturnLabel_45>:
 c0012ee:	e003      	b.n	c0012f8 <??CrossCallReturnLabel_13>

0c0012f0 <??xQueueGiveFromISR_2>:
 c0012f0:	6a60      	ldr	r0, [r4, #36]	; 0x24
 c0012f2:	b150      	cbz	r0, c00130a <??xQueueGiveFromISR_3>
 c0012f4:	f000 f8ff 	bl	c0014f6 <?Subroutine3>

0c0012f8 <??CrossCallReturnLabel_13>:
 c0012f8:	b138      	cbz	r0, c00130a <??xQueueGiveFromISR_3>
 c0012fa:	b136      	cbz	r6, c00130a <??xQueueGiveFromISR_3>
 c0012fc:	6035      	str	r5, [r6, #0]
 c0012fe:	e004      	b.n	c00130a <??xQueueGiveFromISR_3>

0c001300 <??xQueueGiveFromISR_1>:
 c001300:	1c40      	adds	r0, r0, #1
 c001302:	2145      	movs	r1, #69	; 0x45
 c001304:	5460      	strb	r0, [r4, r1]
 c001306:	e000      	b.n	c00130a <??xQueueGiveFromISR_3>

0c001308 <??xQueueGiveFromISR_0>:
 c001308:	2500      	movs	r5, #0

0c00130a <??xQueueGiveFromISR_3>:
 c00130a:	0038      	movs	r0, r7
 c00130c:	f010 fb30 	bl	c011970 <vClearInterruptMaskFromISR>
 c001310:	0028      	movs	r0, r5
 c001312:	bdf2      	pop	{r1, r4, r5, r6, r7, pc}

0c001314 <?Subroutine9>:
 c001314:	2100      	movs	r1, #0

0c001316 <??Subroutine9_0>:
 c001316:	0020      	movs	r0, r4
 c001318:	e1ac      	b.n	c001674 <prvNotifyQueueSetContainer>

0c00131a <xQueueReceive>:
 c00131a:	b5bf      	push	{r0, r1, r2, r3, r4, r5, r7, lr}
 c00131c:	b082      	sub	sp, #8
 c00131e:	2500      	movs	r5, #0
 c001320:	2700      	movs	r7, #0
 c001322:	43ff      	mvns	r7, r7
 c001324:	0004      	movs	r4, r0
 c001326:	e003      	b.n	c001330 <??xQueueReceive_0>

0c001328 <??xQueueReceive_1>:
 c001328:	f000 f8dc 	bl	c0014e4 <?Subroutine5>

0c00132c <??CrossCallReturnLabel_26>:
 c00132c:	f7ff f839 	bl	c0003a2 <xTaskResumeAll>

0c001330 <??xQueueReceive_0>:
 c001330:	f7ff fb48 	bl	c0009c4 <vPortEnterCritical>
 c001334:	6ba0      	ldr	r0, [r4, #56]	; 0x38
 c001336:	bb48      	cbnz	r0, c00138c <??xQueueReceive_2>
 c001338:	9804      	ldr	r0, [sp, #16]
 c00133a:	2800      	cmp	r0, #0
 c00133c:	d038      	beq.n	c0013b0 <??xQueueReceive_3>
 c00133e:	b91d      	cbnz	r5, c001348 <??xQueueReceive_4>
 c001340:	4668      	mov	r0, sp
 c001342:	f7ff f94d 	bl	c0005e0 <vTaskInternalSetTimeOutState>
 c001346:	2501      	movs	r5, #1

0c001348 <??xQueueReceive_4>:
 c001348:	f7ff fb48 	bl	c0009dc <vPortExitCritical>
 c00134c:	f7ff f812 	bl	c000374 <vTaskSuspendAll>
 c001350:	f7ff fb38 	bl	c0009c4 <vPortEnterCritical>
 c001354:	2044      	movs	r0, #68	; 0x44
 c001356:	5620      	ldrsb	r0, [r4, r0]
 c001358:	42b8      	cmp	r0, r7
 c00135a:	f000 f8b1 	bl	c0014c0 <??Subroutine12_0>

0c00135e <??CrossCallReturnLabel_56>:
 c00135e:	f000 f8ba 	bl	c0014d6 <?Subroutine8>

0c001362 <??CrossCallReturnLabel_39>:
 c001362:	42b9      	cmp	r1, r7
 c001364:	f000 f8b2 	bl	c0014cc <??Subroutine11_0>

0c001368 <??CrossCallReturnLabel_50>:
 c001368:	f7ff ff75 	bl	c001256 <?Subroutine13>

0c00136c <??CrossCallReturnLabel_58>:
 c00136c:	bb20      	cbnz	r0, c0013b8 <??xQueueReceive_5>
 c00136e:	f000 f8b7 	bl	c0014e0 <?Subroutine6>

0c001372 <??CrossCallReturnLabel_35>:
 c001372:	2800      	cmp	r0, #0
 c001374:	d0d8      	beq.n	c001328 <??xQueueReceive_1>
 c001376:	f000 f828 	bl	c0013ca <?Subroutine7>

0c00137a <??CrossCallReturnLabel_38>:
 c00137a:	f000 f8b3 	bl	c0014e4 <?Subroutine5>

0c00137e <??CrossCallReturnLabel_25>:
 c00137e:	f7ff f810 	bl	c0003a2 <xTaskResumeAll>
 c001382:	2800      	cmp	r0, #0
 c001384:	d1d4      	bne.n	c001330 <??xQueueReceive_0>
 c001386:	f7ff fb17 	bl	c0009b8 <vPortYield>
 c00138a:	e7d1      	b.n	c001330 <??xQueueReceive_0>

0c00138c <??xQueueReceive_2>:
 c00138c:	0005      	movs	r5, r0
 c00138e:	9903      	ldr	r1, [sp, #12]
 c001390:	f000 f8af 	bl	c0014f2 <??Subroutine10_0>

0c001394 <??CrossCallReturnLabel_47>:
 c001394:	1e6d      	subs	r5, r5, #1
 c001396:	63a5      	str	r5, [r4, #56]	; 0x38
 c001398:	6920      	ldr	r0, [r4, #16]
 c00139a:	b120      	cbz	r0, c0013a6 <??xQueueReceive_6>
 c00139c:	f000 f8a4 	bl	c0014e8 <?Subroutine2>

0c0013a0 <??CrossCallReturnLabel_9>:
 c0013a0:	b108      	cbz	r0, c0013a6 <??xQueueReceive_6>
 c0013a2:	f7ff fb09 	bl	c0009b8 <vPortYield>

0c0013a6 <??xQueueReceive_6>:
 c0013a6:	f7ff fb19 	bl	c0009dc <vPortExitCritical>
 c0013aa:	2001      	movs	r0, #1

0c0013ac <??xQueueReceive_7>:
 c0013ac:	b006      	add	sp, #24
 c0013ae:	bdb0      	pop	{r4, r5, r7, pc}

0c0013b0 <??xQueueReceive_3>:
 c0013b0:	f7ff fb14 	bl	c0009dc <vPortExitCritical>

0c0013b4 <??xQueueReceive_8>:
 c0013b4:	2000      	movs	r0, #0
 c0013b6:	e7f9      	b.n	c0013ac <??xQueueReceive_7>

0c0013b8 <??xQueueReceive_5>:
 c0013b8:	f000 f894 	bl	c0014e4 <?Subroutine5>

0c0013bc <??CrossCallReturnLabel_24>:
 c0013bc:	f7fe fff1 	bl	c0003a2 <xTaskResumeAll>
 c0013c0:	f000 f88e 	bl	c0014e0 <?Subroutine6>

0c0013c4 <??CrossCallReturnLabel_34>:
 c0013c4:	2800      	cmp	r0, #0
 c0013c6:	d0b3      	beq.n	c001330 <??xQueueReceive_0>
 c0013c8:	e7f4      	b.n	c0013b4 <??xQueueReceive_8>

0c0013ca <?Subroutine7>:
 c0013ca:	9904      	ldr	r1, [sp, #16]

0c0013cc <??Subroutine7_0>:
 c0013cc:	0020      	movs	r0, r4
 c0013ce:	3024      	adds	r0, #36	; 0x24
 c0013d0:	f7ff b8b3 	b.w	c00053a <vTaskPlaceOnEventList>

0c0013d4 <xQueueSemaphoreTake>:
 c0013d4:	b57a      	push	{r1, r3, r4, r5, r6, lr}
 c0013d6:	b082      	sub	sp, #8
 c0013d8:	2600      	movs	r6, #0
 c0013da:	2500      	movs	r5, #0
 c0013dc:	0004      	movs	r4, r0
 c0013de:	e003      	b.n	c0013e8 <??xQueueSemaphoreTake_0>

0c0013e0 <??xQueueSemaphoreTake_1>:
 c0013e0:	f000 f880 	bl	c0014e4 <?Subroutine5>

0c0013e4 <??CrossCallReturnLabel_23>:
 c0013e4:	f7fe ffdd 	bl	c0003a2 <xTaskResumeAll>

0c0013e8 <??xQueueSemaphoreTake_0>:
 c0013e8:	f7ff faec 	bl	c0009c4 <vPortEnterCritical>
 c0013ec:	6ba0      	ldr	r0, [r4, #56]	; 0x38
 c0013ee:	2800      	cmp	r0, #0
 c0013f0:	d138      	bne.n	c001464 <??xQueueSemaphoreTake_2>
 c0013f2:	9802      	ldr	r0, [sp, #8]
 c0013f4:	2800      	cmp	r0, #0
 c0013f6:	d05d      	beq.n	c0014b4 <??xQueueSemaphoreTake_3>
 c0013f8:	b91e      	cbnz	r6, c001402 <??xQueueSemaphoreTake_4>
 c0013fa:	4668      	mov	r0, sp
 c0013fc:	f7ff f8f0 	bl	c0005e0 <vTaskInternalSetTimeOutState>
 c001400:	2601      	movs	r6, #1

0c001402 <??xQueueSemaphoreTake_4>:
 c001402:	f7ff faeb 	bl	c0009dc <vPortExitCritical>
 c001406:	f7fe ffb5 	bl	c000374 <vTaskSuspendAll>
 c00140a:	f7ff fadb 	bl	c0009c4 <vPortEnterCritical>
 c00140e:	2044      	movs	r0, #68	; 0x44
 c001410:	5620      	ldrsb	r0, [r4, r0]
 c001412:	2100      	movs	r1, #0
 c001414:	43c9      	mvns	r1, r1
 c001416:	f000 f852 	bl	c0014be <?Subroutine12>

0c00141a <??CrossCallReturnLabel_54>:
 c00141a:	f000 f85c 	bl	c0014d6 <?Subroutine8>

0c00141e <??CrossCallReturnLabel_40>:
 c00141e:	2200      	movs	r2, #0
 c001420:	43d2      	mvns	r2, r2
 c001422:	f000 f852 	bl	c0014ca <?Subroutine11>

0c001426 <??CrossCallReturnLabel_52>:
 c001426:	a902      	add	r1, sp, #8
 c001428:	f7ff ff16 	bl	c001258 <??Subroutine13_0>

0c00142c <??CrossCallReturnLabel_57>:
 c00142c:	2800      	cmp	r0, #0
 c00142e:	d12b      	bne.n	c001488 <??xQueueSemaphoreTake_5>
 c001430:	f000 f856 	bl	c0014e0 <?Subroutine6>

0c001434 <??CrossCallReturnLabel_33>:
 c001434:	2800      	cmp	r0, #0
 c001436:	d0d3      	beq.n	c0013e0 <??xQueueSemaphoreTake_1>
 c001438:	6820      	ldr	r0, [r4, #0]
 c00143a:	b938      	cbnz	r0, c00144c <??xQueueSemaphoreTake_6>
 c00143c:	f7ff fac2 	bl	c0009c4 <vPortEnterCritical>
 c001440:	68a0      	ldr	r0, [r4, #8]
 c001442:	f7ff f965 	bl	c000710 <xTaskPriorityInherit>
 c001446:	0005      	movs	r5, r0
 c001448:	f7ff fac8 	bl	c0009dc <vPortExitCritical>

0c00144c <??xQueueSemaphoreTake_6>:
 c00144c:	9902      	ldr	r1, [sp, #8]
 c00144e:	f7ff ffbd 	bl	c0013cc <??Subroutine7_0>

0c001452 <??CrossCallReturnLabel_36>:
 c001452:	f000 f847 	bl	c0014e4 <?Subroutine5>

0c001456 <??CrossCallReturnLabel_22>:
 c001456:	f7fe ffa4 	bl	c0003a2 <xTaskResumeAll>
 c00145a:	2800      	cmp	r0, #0
 c00145c:	d1c4      	bne.n	c0013e8 <??xQueueSemaphoreTake_0>
 c00145e:	f7ff faab 	bl	c0009b8 <vPortYield>
 c001462:	e7c1      	b.n	c0013e8 <??xQueueSemaphoreTake_0>

0c001464 <??xQueueSemaphoreTake_2>:
 c001464:	1e40      	subs	r0, r0, #1
 c001466:	63a0      	str	r0, [r4, #56]	; 0x38
 c001468:	6820      	ldr	r0, [r4, #0]
 c00146a:	b910      	cbnz	r0, c001472 <??xQueueSemaphoreTake_7>
 c00146c:	f7ff f9d0 	bl	c000810 <pvTaskIncrementMutexHeldCount>
 c001470:	60a0      	str	r0, [r4, #8]

0c001472 <??xQueueSemaphoreTake_7>:
 c001472:	6920      	ldr	r0, [r4, #16]
 c001474:	b120      	cbz	r0, c001480 <??xQueueSemaphoreTake_8>
 c001476:	f000 f837 	bl	c0014e8 <?Subroutine2>

0c00147a <??CrossCallReturnLabel_8>:
 c00147a:	b108      	cbz	r0, c001480 <??xQueueSemaphoreTake_8>
 c00147c:	f7ff fa9c 	bl	c0009b8 <vPortYield>

0c001480 <??xQueueSemaphoreTake_8>:
 c001480:	f7ff faac 	bl	c0009dc <vPortExitCritical>
 c001484:	2001      	movs	r0, #1
 c001486:	e018      	b.n	c0014ba <??xQueueSemaphoreTake_9>

0c001488 <??xQueueSemaphoreTake_5>:
 c001488:	f000 f82c 	bl	c0014e4 <?Subroutine5>

0c00148c <??CrossCallReturnLabel_21>:
 c00148c:	f7fe ff89 	bl	c0003a2 <xTaskResumeAll>
 c001490:	f000 f826 	bl	c0014e0 <?Subroutine6>

0c001494 <??CrossCallReturnLabel_32>:
 c001494:	2800      	cmp	r0, #0
 c001496:	d0a7      	beq.n	c0013e8 <??xQueueSemaphoreTake_0>
 c001498:	b175      	cbz	r5, c0014b8 <??xQueueSemaphoreTake_10>
 c00149a:	f7ff fa93 	bl	c0009c4 <vPortEnterCritical>
 c00149e:	6a60      	ldr	r0, [r4, #36]	; 0x24
 c0014a0:	b120      	cbz	r0, c0014ac <??xQueueSemaphoreTake_11>
 c0014a2:	200b      	movs	r0, #11
 c0014a4:	6b21      	ldr	r1, [r4, #48]	; 0x30
 c0014a6:	6809      	ldr	r1, [r1, #0]
 c0014a8:	1a41      	subs	r1, r0, r1
 c0014aa:	e000      	b.n	c0014ae <??xQueueSemaphoreTake_12>

0c0014ac <??xQueueSemaphoreTake_11>:
 c0014ac:	2100      	movs	r1, #0

0c0014ae <??xQueueSemaphoreTake_12>:
 c0014ae:	68a0      	ldr	r0, [r4, #8]
 c0014b0:	f7ff f97d 	bl	c0007ae <vTaskPriorityDisinheritAfterTimeout>

0c0014b4 <??xQueueSemaphoreTake_3>:
 c0014b4:	f7ff fa92 	bl	c0009dc <vPortExitCritical>

0c0014b8 <??xQueueSemaphoreTake_10>:
 c0014b8:	2000      	movs	r0, #0

0c0014ba <??xQueueSemaphoreTake_9>:
 c0014ba:	b004      	add	sp, #16
 c0014bc:	bd70      	pop	{r4, r5, r6, pc}

0c0014be <?Subroutine12>:
 c0014be:	4288      	cmp	r0, r1

0c0014c0 <??Subroutine12_0>:
 c0014c0:	d102      	bne.n	c0014c8 <??Subroutine12_1>
 c0014c2:	2000      	movs	r0, #0
 c0014c4:	2144      	movs	r1, #68	; 0x44
 c0014c6:	5460      	strb	r0, [r4, r1]

0c0014c8 <??Subroutine12_1>:
 c0014c8:	4770      	bx	lr

0c0014ca <?Subroutine11>:
 c0014ca:	4291      	cmp	r1, r2

0c0014cc <??Subroutine11_0>:
 c0014cc:	d101      	bne.n	c0014d2 <??Subroutine11_1>
 c0014ce:	2100      	movs	r1, #0
 c0014d0:	7041      	strb	r1, [r0, #1]

0c0014d2 <??Subroutine11_1>:
 c0014d2:	f7ff ba83 	b.w	c0009dc <vPortExitCritical>

0c0014d6 <?Subroutine8>:
 c0014d6:	0020      	movs	r0, r4
 c0014d8:	3044      	adds	r0, #68	; 0x44
 c0014da:	2101      	movs	r1, #1
 c0014dc:	5641      	ldrsb	r1, [r0, r1]
 c0014de:	4770      	bx	lr

0c0014e0 <?Subroutine6>:
 c0014e0:	0020      	movs	r0, r4
 c0014e2:	e08e      	b.n	c001602 <prvIsQueueEmpty>

0c0014e4 <?Subroutine5>:
 c0014e4:	0020      	movs	r0, r4
 c0014e6:	e056      	b.n	c001596 <prvUnlockQueue>

0c0014e8 <?Subroutine2>:
 c0014e8:	0020      	movs	r0, r4

0c0014ea <??Subroutine2_0>:
 c0014ea:	3010      	adds	r0, #16
 c0014ec:	f7ff b848 	b.w	c000580 <xTaskRemoveFromEventList>

0c0014f0 <?Subroutine10>:
 c0014f0:	68e5      	ldr	r5, [r4, #12]

0c0014f2 <??Subroutine10_0>:
 c0014f2:	0020      	movs	r0, r4
 c0014f4:	e03c      	b.n	c001570 <prvCopyDataFromQueue>

0c0014f6 <?Subroutine3>:
 c0014f6:	0020      	movs	r0, r4
 c0014f8:	3024      	adds	r0, #36	; 0x24
 c0014fa:	f7ff b841 	b.w	c000580 <xTaskRemoveFromEventList>

0c0014fe <?Subroutine0>:
 c0014fe:	f7ff fa6d 	bl	c0009dc <vPortExitCritical>
 c001502:	0020      	movs	r0, r4
 c001504:	bd10      	pop	{r4, pc}

0c001506 <prvCopyDataToQueue>:
 c001506:	b5f8      	push	{r3, r4, r5, r6, r7, lr}
 c001508:	0004      	movs	r4, r0
 c00150a:	0010      	movs	r0, r2
 c00150c:	2600      	movs	r6, #0
 c00150e:	2700      	movs	r7, #0
 c001510:	6ba5      	ldr	r5, [r4, #56]	; 0x38
 c001512:	6c22      	ldr	r2, [r4, #64]	; 0x40
 c001514:	b93a      	cbnz	r2, c001526 <??prvCopyDataToQueue_0>
 c001516:	6820      	ldr	r0, [r4, #0]
 c001518:	bb30      	cbnz	r0, c001568 <??prvCopyDataToQueue_1>
 c00151a:	68a0      	ldr	r0, [r4, #8]
 c00151c:	f7ff f92e 	bl	c00077c <xTaskPriorityDisinherit>
 c001520:	0007      	movs	r7, r0
 c001522:	60a6      	str	r6, [r4, #8]
 c001524:	e020      	b.n	c001568 <??prvCopyDataToQueue_1>

0c001526 <??prvCopyDataToQueue_0>:
 c001526:	0006      	movs	r6, r0
 c001528:	d10c      	bne.n	c001544 <??prvCopyDataToQueue_2>
 c00152a:	6860      	ldr	r0, [r4, #4]
 c00152c:	f000 fe70 	bl	c002210 <__aeabi_memcpy>
 c001530:	6860      	ldr	r0, [r4, #4]
 c001532:	6c21      	ldr	r1, [r4, #64]	; 0x40
 c001534:	1840      	adds	r0, r0, r1
 c001536:	6060      	str	r0, [r4, #4]
 c001538:	68a1      	ldr	r1, [r4, #8]
 c00153a:	4288      	cmp	r0, r1
 c00153c:	d314      	bcc.n	c001568 <??prvCopyDataToQueue_1>
 c00153e:	6820      	ldr	r0, [r4, #0]
 c001540:	6060      	str	r0, [r4, #4]
 c001542:	e011      	b.n	c001568 <??prvCopyDataToQueue_1>

0c001544 <??prvCopyDataToQueue_2>:
 c001544:	68e0      	ldr	r0, [r4, #12]
 c001546:	f000 fe63 	bl	c002210 <__aeabi_memcpy>
 c00154a:	6c21      	ldr	r1, [r4, #64]	; 0x40
 c00154c:	4248      	negs	r0, r1
 c00154e:	68e1      	ldr	r1, [r4, #12]
 c001550:	1809      	adds	r1, r1, r0
 c001552:	60e1      	str	r1, [r4, #12]
 c001554:	6822      	ldr	r2, [r4, #0]
 c001556:	4291      	cmp	r1, r2
 c001558:	d202      	bcs.n	c001560 <??prvCopyDataToQueue_3>
 c00155a:	68a1      	ldr	r1, [r4, #8]
 c00155c:	1808      	adds	r0, r1, r0
 c00155e:	60e0      	str	r0, [r4, #12]

0c001560 <??prvCopyDataToQueue_3>:
 c001560:	2e02      	cmp	r6, #2
 c001562:	d101      	bne.n	c001568 <??prvCopyDataToQueue_1>
 c001564:	b105      	cbz	r5, c001568 <??prvCopyDataToQueue_1>
 c001566:	1e6d      	subs	r5, r5, #1

0c001568 <??prvCopyDataToQueue_1>:
 c001568:	1c6d      	adds	r5, r5, #1
 c00156a:	63a5      	str	r5, [r4, #56]	; 0x38
 c00156c:	0038      	movs	r0, r7
 c00156e:	bdf2      	pop	{r1, r4, r5, r6, r7, pc}

0c001570 <prvCopyDataFromQueue>:
 c001570:	b418      	push	{r3, r4}
 c001572:	000b      	movs	r3, r1
 c001574:	6c02      	ldr	r2, [r0, #64]	; 0x40
 c001576:	b162      	cbz	r2, c001592 <??prvCopyDataFromQueue_0>
 c001578:	68c1      	ldr	r1, [r0, #12]
 c00157a:	1889      	adds	r1, r1, r2
 c00157c:	60c1      	str	r1, [r0, #12]
 c00157e:	6884      	ldr	r4, [r0, #8]
 c001580:	42a1      	cmp	r1, r4
 c001582:	d301      	bcc.n	c001588 <??prvCopyDataFromQueue_1>
 c001584:	6801      	ldr	r1, [r0, #0]
 c001586:	60c1      	str	r1, [r0, #12]

0c001588 <??prvCopyDataFromQueue_1>:
 c001588:	68c1      	ldr	r1, [r0, #12]
 c00158a:	0018      	movs	r0, r3
 c00158c:	bc18      	pop	{r3, r4}
 c00158e:	f000 be3f 	b.w	c002210 <__aeabi_memcpy>

0c001592 <??prvCopyDataFromQueue_0>:
 c001592:	bc11      	pop	{r0, r4}
 c001594:	4770      	bx	lr

0c001596 <prvUnlockQueue>:
 c001596:	b5f8      	push	{r3, r4, r5, r6, r7, lr}
 c001598:	f000 f830 	bl	c0015fc <?Subroutine1>

0c00159c <??CrossCallReturnLabel_2>:
 c00159c:	0027      	movs	r7, r4
 c00159e:	3744      	adds	r7, #68	; 0x44
 c0015a0:	2001      	movs	r0, #1
 c0015a2:	563d      	ldrsb	r5, [r7, r0]
 c0015a4:	e005      	b.n	c0015b2 <??prvUnlockQueue_0>

0c0015a6 <??prvUnlockQueue_1>:
 c0015a6:	f7ff ffa6 	bl	c0014f6 <?Subroutine3>

0c0015aa <??CrossCallReturnLabel_11>:
 c0015aa:	b108      	cbz	r0, c0015b0 <??prvUnlockQueue_2>
 c0015ac:	f7ff f84b 	bl	c000646 <vTaskMissedYield>

0c0015b0 <??prvUnlockQueue_2>:
 c0015b0:	1e6d      	subs	r5, r5, #1

0c0015b2 <??prvUnlockQueue_0>:
 c0015b2:	b268      	sxtb	r0, r5
 c0015b4:	2801      	cmp	r0, #1
 c0015b6:	db07      	blt.n	c0015c8 <??prvUnlockQueue_3>
 c0015b8:	6878      	ldr	r0, [r7, #4]
 c0015ba:	b110      	cbz	r0, c0015c2 <??prvUnlockQueue_4>
 c0015bc:	f7ff feaa 	bl	c001314 <?Subroutine9>

0c0015c0 <??CrossCallReturnLabel_44>:
 c0015c0:	e7f3      	b.n	c0015aa <??CrossCallReturnLabel_11>

0c0015c2 <??prvUnlockQueue_4>:
 c0015c2:	6a60      	ldr	r0, [r4, #36]	; 0x24
 c0015c4:	2800      	cmp	r0, #0
 c0015c6:	d1ee      	bne.n	c0015a6 <??prvUnlockQueue_1>

0c0015c8 <??prvUnlockQueue_3>:
 c0015c8:	2500      	movs	r5, #0
 c0015ca:	43ed      	mvns	r5, r5
 c0015cc:	707d      	strb	r5, [r7, #1]
 c0015ce:	f7ff fa05 	bl	c0009dc <vPortExitCritical>
 c0015d2:	f7ff f9f7 	bl	c0009c4 <vPortEnterCritical>
 c0015d6:	2044      	movs	r0, #68	; 0x44
 c0015d8:	5626      	ldrsb	r6, [r4, r0]
 c0015da:	e005      	b.n	c0015e8 <??prvUnlockQueue_5>

0c0015dc <??prvUnlockQueue_6>:
 c0015dc:	f7ff ff84 	bl	c0014e8 <?Subroutine2>

0c0015e0 <??CrossCallReturnLabel_6>:
 c0015e0:	b108      	cbz	r0, c0015e6 <??prvUnlockQueue_7>
 c0015e2:	f7ff f830 	bl	c000646 <vTaskMissedYield>

0c0015e6 <??prvUnlockQueue_7>:
 c0015e6:	1e76      	subs	r6, r6, #1

0c0015e8 <??prvUnlockQueue_5>:
 c0015e8:	b270      	sxtb	r0, r6
 c0015ea:	2801      	cmp	r0, #1
 c0015ec:	db02      	blt.n	c0015f4 <??prvUnlockQueue_8>
 c0015ee:	6920      	ldr	r0, [r4, #16]
 c0015f0:	2800      	cmp	r0, #0
 c0015f2:	d1f3      	bne.n	c0015dc <??prvUnlockQueue_6>

0c0015f4 <??prvUnlockQueue_8>:
 c0015f4:	703d      	strb	r5, [r7, #0]
 c0015f6:	f7ff f9f1 	bl	c0009dc <vPortExitCritical>
 c0015fa:	bdf1      	pop	{r0, r4, r5, r6, r7, pc}

0c0015fc <?Subroutine1>:
 c0015fc:	0004      	movs	r4, r0
 c0015fe:	f7ff b9e1 	b.w	c0009c4 <vPortEnterCritical>

0c001602 <prvIsQueueEmpty>:
 c001602:	b510      	push	{r4, lr}
 c001604:	f7ff fffa 	bl	c0015fc <?Subroutine1>

0c001608 <??CrossCallReturnLabel_1>:
 c001608:	6ba0      	ldr	r0, [r4, #56]	; 0x38
 c00160a:	1e44      	subs	r4, r0, #1
 c00160c:	41a4      	sbcs	r4, r4
 c00160e:	0fe4      	lsrs	r4, r4, #31
 c001610:	e775      	b.n	c0014fe <?Subroutine0>

0c001612 <prvIsQueueFull>:
 c001612:	b510      	push	{r4, lr}
 c001614:	f7ff fff2 	bl	c0015fc <?Subroutine1>

0c001618 <??CrossCallReturnLabel_0>:
 c001618:	f000 f805 	bl	c001626 <?Subroutine14>

0c00161c <??CrossCallReturnLabel_62>:
 c00161c:	d101      	bne.n	c001622 <??prvIsQueueFull_0>
 c00161e:	2401      	movs	r4, #1
 c001620:	e000      	b.n	c001624 <??prvIsQueueFull_1>

0c001622 <??prvIsQueueFull_0>:
 c001622:	2400      	movs	r4, #0

0c001624 <??prvIsQueueFull_1>:
 c001624:	e76b      	b.n	c0014fe <?Subroutine0>

0c001626 <?Subroutine14>:
 c001626:	6ba0      	ldr	r0, [r4, #56]	; 0x38
 c001628:	6be1      	ldr	r1, [r4, #60]	; 0x3c
 c00162a:	4288      	cmp	r0, r1
 c00162c:	4770      	bx	lr

0c00162e <vQueueWaitForMessageRestricted>:
 c00162e:	b570      	push	{r4, r5, r6, lr}
 c001630:	0004      	movs	r4, r0
 c001632:	000d      	movs	r5, r1
 c001634:	0016      	movs	r6, r2
 c001636:	f7ff f9c5 	bl	c0009c4 <vPortEnterCritical>
 c00163a:	2000      	movs	r0, #0
 c00163c:	2100      	movs	r1, #0
 c00163e:	43c9      	mvns	r1, r1
 c001640:	2244      	movs	r2, #68	; 0x44
 c001642:	56a2      	ldrsb	r2, [r4, r2]
 c001644:	428a      	cmp	r2, r1
 c001646:	d101      	bne.n	c00164c <??vQueueWaitForMessageRestricted_0>
 c001648:	2344      	movs	r3, #68	; 0x44
 c00164a:	54e0      	strb	r0, [r4, r3]

0c00164c <??vQueueWaitForMessageRestricted_0>:
 c00164c:	2245      	movs	r2, #69	; 0x45
 c00164e:	56a2      	ldrsb	r2, [r4, r2]
 c001650:	428a      	cmp	r2, r1
 c001652:	d101      	bne.n	c001658 <??vQueueWaitForMessageRestricted_1>
 c001654:	2145      	movs	r1, #69	; 0x45
 c001656:	5460      	strb	r0, [r4, r1]

0c001658 <??vQueueWaitForMessageRestricted_1>:
 c001658:	f7ff f9c0 	bl	c0009dc <vPortExitCritical>
 c00165c:	6ba0      	ldr	r0, [r4, #56]	; 0x38
 c00165e:	b928      	cbnz	r0, c00166c <??vQueueWaitForMessageRestricted_2>
 c001660:	0032      	movs	r2, r6
 c001662:	0029      	movs	r1, r5
 c001664:	0020      	movs	r0, r4
 c001666:	3024      	adds	r0, #36	; 0x24
 c001668:	f7fe ff7a 	bl	c000560 <vTaskPlaceOnEventListRestricted>

0c00166c <??vQueueWaitForMessageRestricted_2>:
 c00166c:	0020      	movs	r0, r4
 c00166e:	f7ff ff92 	bl	c001596 <prvUnlockQueue>
 c001672:	bd70      	pop	{r4, r5, r6, pc}

0c001674 <prvNotifyQueueSetContainer>:
 c001674:	b571      	push	{r0, r4, r5, r6, lr}
 c001676:	b081      	sub	sp, #4
 c001678:	6c84      	ldr	r4, [r0, #72]	; 0x48
 c00167a:	2600      	movs	r6, #0
 c00167c:	6ba0      	ldr	r0, [r4, #56]	; 0x38
 c00167e:	6be2      	ldr	r2, [r4, #60]	; 0x3c
 c001680:	4290      	cmp	r0, r2
 c001682:	d215      	bcs.n	c0016b0 <??prvNotifyQueueSetContainer_0>
 c001684:	2045      	movs	r0, #69	; 0x45
 c001686:	5625      	ldrsb	r5, [r4, r0]
 c001688:	000a      	movs	r2, r1
 c00168a:	a901      	add	r1, sp, #4
 c00168c:	0020      	movs	r0, r4
 c00168e:	f7ff ff3a 	bl	c001506 <prvCopyDataToQueue>
 c001692:	0006      	movs	r6, r0
 c001694:	2000      	movs	r0, #0
 c001696:	43c0      	mvns	r0, r0
 c001698:	4285      	cmp	r5, r0
 c00169a:	d106      	bne.n	c0016aa <??prvNotifyQueueSetContainer_1>
 c00169c:	6a60      	ldr	r0, [r4, #36]	; 0x24
 c00169e:	b138      	cbz	r0, c0016b0 <??prvNotifyQueueSetContainer_0>
 c0016a0:	f7ff ff29 	bl	c0014f6 <?Subroutine3>

0c0016a4 <??CrossCallReturnLabel_10>:
 c0016a4:	b120      	cbz	r0, c0016b0 <??prvNotifyQueueSetContainer_0>
 c0016a6:	2601      	movs	r6, #1
 c0016a8:	e002      	b.n	c0016b0 <??prvNotifyQueueSetContainer_0>

0c0016aa <??prvNotifyQueueSetContainer_1>:
 c0016aa:	1c6d      	adds	r5, r5, #1
 c0016ac:	2045      	movs	r0, #69	; 0x45
 c0016ae:	5425      	strb	r5, [r4, r0]

0c0016b0 <??prvNotifyQueueSetContainer_0>:
 c0016b0:	0030      	movs	r0, r6
 c0016b2:	bd76      	pop	{r1, r2, r4, r5, r6, pc}

0c0016b4 <?Veneer 22 (3) for SOCPS_SleepDeInit>:
 c0016b4:	b408      	push	{r3}
 c0016b6:	4b02      	ldr	r3, [pc, #8]	; (c0016c0 <?Veneer 22 (3) for SOCPS_SleepDeInit+0xc>)
 c0016b8:	469c      	mov	ip, r3
 c0016ba:	bc08      	pop	{r3}
 c0016bc:	4760      	bx	ip
 c0016be:	46c0      	nop			; (mov r8, r8)
 c0016c0:	000838f1 	.word	0x000838f1

0c0016c4 <?Veneer 24 (3) for SOCPS_KM4Wake>:
 c0016c4:	b408      	push	{r3}
 c0016c6:	4b02      	ldr	r3, [pc, #8]	; (c0016d0 <?Veneer 24 (3) for SOCPS_KM4Wake+0xc>)
 c0016c8:	469c      	mov	ip, r3
 c0016ca:	bc08      	pop	{r3}
 c0016cc:	4760      	bx	ip
 c0016ce:	46c0      	nop			; (mov r8, r8)
 c0016d0:	000837a9 	.word	0x000837a9

0c0016d4 <?Veneer 26 (3) for SOCPS_SetWakeEvent>:
 c0016d4:	b408      	push	{r3}
 c0016d6:	4b02      	ldr	r3, [pc, #8]	; (c0016e0 <?Veneer 26 (3) for SOCPS_SetWakeEvent+0xc>)
 c0016d8:	469c      	mov	ip, r3
 c0016da:	bc08      	pop	{r3}
 c0016dc:	4760      	bx	ip
 c0016de:	46c0      	nop			; (mov r8, r8)
 c0016e0:	000839d9 	.word	0x000839d9

0c0016e4 <?Veneer 27 (3) for SOCPS_ClearWakePin>:
 c0016e4:	b408      	push	{r3}
 c0016e6:	4b02      	ldr	r3, [pc, #8]	; (c0016f0 <?Veneer 27 (3) for SOCPS_ClearWakePin+0xc>)
 c0016e8:	469c      	mov	ip, r3
 c0016ea:	bc08      	pop	{r3}
 c0016ec:	4760      	bx	ip
 c0016ee:	46c0      	nop			; (mov r8, r8)
 c0016f0:	00083a0d 	.word	0x00083a0d

0c0016f4 <?Veneer 28 (3) for SOCPS_ClearWakeEvent>:
 c0016f4:	b408      	push	{r3}
 c0016f6:	4b02      	ldr	r3, [pc, #8]	; (c001700 <?Veneer 28 (3) for SOCPS_ClearWakeEvent+0xc>)
 c0016f8:	469c      	mov	ip, r3
 c0016fa:	bc08      	pop	{r3}
 c0016fc:	4760      	bx	ip
 c0016fe:	46c0      	nop			; (mov r8, r8)
 c001700:	00083a1f 	.word	0x00083a1f

0c001704 <?Veneer 31 (3) for SOCPS_AONWakeReason>:
 c001704:	b408      	push	{r3}
 c001706:	4b02      	ldr	r3, [pc, #8]	; (c001710 <?Veneer 31 (3) for SOCPS_AONWakeReason+0xc>)
 c001708:	469c      	mov	ip, r3
 c00170a:	bc08      	pop	{r3}
 c00170c:	4760      	bx	ip
 c00170e:	46c0      	nop			; (mov r8, r8)
 c001710:	00083567 	.word	0x00083567

0c001714 <?Veneer 37 (3) for irq_register>:
 c001714:	b408      	push	{r3}
 c001716:	4b02      	ldr	r3, [pc, #8]	; (c001720 <?Veneer 37 (3) for irq_register+0xc>)
 c001718:	469c      	mov	ip, r3
 c00171a:	bc08      	pop	{r3}
 c00171c:	4760      	bx	ip
 c00171e:	46c0      	nop			; (mov r8, r8)
 c001720:	00005699 	.word	0x00005699

0c001724 <?Veneer 38 (3) for irq_enable>:
 c001724:	b408      	push	{r3}
 c001726:	4b02      	ldr	r3, [pc, #8]	; (c001730 <?Veneer 38 (3) for irq_enable+0xc>)
 c001728:	469c      	mov	ip, r3
 c00172a:	bc08      	pop	{r3}
 c00172c:	4760      	bx	ip
 c00172e:	46c0      	nop			; (mov r8, r8)
 c001730:	00005559 	.word	0x00005559

0c001734 <?Veneer 78 (3) for PAD_PullCtrl>:
 c001734:	b408      	push	{r3}
 c001736:	4b02      	ldr	r3, [pc, #8]	; (c001740 <?Veneer 78 (3) for PAD_PullCtrl+0xc>)
 c001738:	469c      	mov	ip, r3
 c00173a:	bc08      	pop	{r3}
 c00173c:	4760      	bx	ip
 c00173e:	46c0      	nop			; (mov r8, r8)
 c001740:	00003685 	.word	0x00003685

0c001744 <?Veneer 86 (3) for IPC_IERGet>:
 c001744:	b408      	push	{r3}
 c001746:	4b02      	ldr	r3, [pc, #8]	; (c001750 <?Veneer 86 (3) for IPC_IERGet+0xc>)
 c001748:	469c      	mov	ip, r3
 c00174a:	bc08      	pop	{r3}
 c00174c:	4760      	bx	ip
 c00174e:	46c0      	nop			; (mov r8, r8)
 c001750:	0000305b 	.word	0x0000305b

0c001754 <?Veneer 87 (3) for SOCPS_MMUBackup>:
 c001754:	b408      	push	{r3}
 c001756:	4b02      	ldr	r3, [pc, #8]	; (c001760 <?Veneer 87 (3) for SOCPS_MMUBackup+0xc>)
 c001758:	469c      	mov	ip, r3
 c00175a:	bc08      	pop	{r3}
 c00175c:	4760      	bx	ip
 c00175e:	46c0      	nop			; (mov r8, r8)
 c001760:	0008364b 	.word	0x0008364b

0c001764 <?Veneer 88 (3) for LOGUART_WaitBusy>:
 c001764:	b408      	push	{r3}
 c001766:	4b02      	ldr	r3, [pc, #8]	; (c001770 <?Veneer 88 (3) for LOGUART_WaitBusy+0xc>)
 c001768:	469c      	mov	ip, r3
 c00176a:	bc08      	pop	{r3}
 c00176c:	4760      	bx	ip
 c00176e:	46c0      	nop			; (mov r8, r8)
 c001770:	00003265 	.word	0x00003265

0c001774 <?Veneer 89 (3) for SOCPS_SleepPG_RAM>:
 c001774:	b408      	push	{r3}
 c001776:	4b02      	ldr	r3, [pc, #8]	; (c001780 <?Veneer 89 (3) for SOCPS_SleepPG_RAM+0xc>)
 c001778:	469c      	mov	ip, r3
 c00177a:	bc08      	pop	{r3}
 c00177c:	4760      	bx	ip
 c00177e:	46c0      	nop			; (mov r8, r8)
 c001780:	00083ba9 	.word	0x00083ba9

0c001784 <?Veneer 90 (3) for IPC_IERSet>:
 c001784:	b408      	push	{r3}
 c001786:	4b02      	ldr	r3, [pc, #8]	; (c001790 <?Veneer 90 (3) for IPC_IERSet+0xc>)
 c001788:	469c      	mov	ip, r3
 c00178a:	bc08      	pop	{r3}
 c00178c:	4760      	bx	ip
 c00178e:	46c0      	nop			; (mov r8, r8)
 c001790:	00003057 	.word	0x00003057

0c001794 <?Veneer 91 (3) for SOCPS_SNOOZE_Config>:
 c001794:	b408      	push	{r3}
 c001796:	4b02      	ldr	r3, [pc, #8]	; (c0017a0 <?Veneer 91 (3) for SOCPS_SNOOZE_Config+0xc>)
 c001798:	469c      	mov	ip, r3
 c00179a:	bc08      	pop	{r3}
 c00179c:	4760      	bx	ip
 c00179e:	46c0      	nop			; (mov r8, r8)
 c0017a0:	00083553 	.word	0x00083553

0c0017a4 <?Veneer 93 (3) for Pinmux_Config>:
 c0017a4:	b408      	push	{r3}
 c0017a6:	4b02      	ldr	r3, [pc, #8]	; (c0017b0 <?Veneer 93 (3) for Pinmux_Config+0xc>)
 c0017a8:	469c      	mov	ip, r3
 c0017aa:	bc08      	pop	{r3}
 c0017ac:	4760      	bx	ip
 c0017ae:	46c0      	nop			; (mov r8, r8)
 c0017b0:	000036dd 	.word	0x000036dd

0c0017b4 <?Veneer 94 (3) for SOCPS_SetWakepin>:
 c0017b4:	b408      	push	{r3}
 c0017b6:	4b02      	ldr	r3, [pc, #8]	; (c0017c0 <?Veneer 94 (3) for SOCPS_SetWakepin+0xc>)
 c0017b8:	469c      	mov	ip, r3
 c0017ba:	bc08      	pop	{r3}
 c0017bc:	4760      	bx	ip
 c0017be:	46c0      	nop			; (mov r8, r8)
 c0017c0:	000835f9 	.word	0x000835f9

0c0017c4 <SOCPS_vWFSSVCHandler>:
 c0017c4:	48b5      	ldr	r0, [pc, #724]	; (c001a9c <.text_89>)
 c0017c6:	6801      	ldr	r1, [r0, #0]
 c0017c8:	4608      	mov	r0, r1
 c0017ca:	c8f0      	ldmia	r0!, {r4, r5, r6, r7}
 c0017cc:	46a0      	mov	r8, r4
 c0017ce:	46a9      	mov	r9, r5
 c0017d0:	46b2      	mov	sl, r6
 c0017d2:	46bb      	mov	fp, r7
 c0017d4:	c8f0      	ldmia	r0!, {r4, r5, r6, r7}
 c0017d6:	f380 8809 	msr	PSP, r0
 c0017da:	4671      	mov	r1, lr
 c0017dc:	200d      	movs	r0, #13
 c0017de:	4301      	orrs	r1, r0
 c0017e0:	4708      	bx	r1
 c0017e2:	4770      	bx	lr

0c0017e4 <SOCPS_NVICBackup>:
 c0017e4:	b430      	push	{r4, r5}
 c0017e6:	2100      	movs	r1, #0
 c0017e8:	4897      	ldr	r0, [pc, #604]	; (c001a48 <.text_84>)
 c0017ea:	4b98      	ldr	r3, [pc, #608]	; (c001a4c <.text_85>)
 c0017ec:	681a      	ldr	r2, [r3, #0]
 c0017ee:	67c2      	str	r2, [r0, #124]	; 0x7c
 c0017f0:	685a      	ldr	r2, [r3, #4]
 c0017f2:	2480      	movs	r4, #128	; 0x80
 c0017f4:	5102      	str	r2, [r0, r4]
 c0017f6:	0002      	movs	r2, r0
 c0017f8:	3284      	adds	r2, #132	; 0x84
 c0017fa:	689b      	ldr	r3, [r3, #8]
 c0017fc:	6013      	str	r3, [r2, #0]
 c0017fe:	4b94      	ldr	r3, [pc, #592]	; (c001a50 <.text_86>)
 c001800:	681c      	ldr	r4, [r3, #0]
 c001802:	6644      	str	r4, [r0, #100]	; 0x64
 c001804:	685b      	ldr	r3, [r3, #4]
 c001806:	6683      	str	r3, [r0, #104]	; 0x68
 c001808:	4ba5      	ldr	r3, [pc, #660]	; (c001aa0 <.text_90>)
 c00180a:	681c      	ldr	r4, [r3, #0]
 c00180c:	66c4      	str	r4, [r0, #108]	; 0x6c
 c00180e:	685b      	ldr	r3, [r3, #4]
 c001810:	6703      	str	r3, [r0, #112]	; 0x70
 c001812:	25a8      	movs	r5, #168	; 0xa8
 c001814:	4ba3      	ldr	r3, [pc, #652]	; (c001aa4 <.text_91>)
 c001816:	008c      	lsls	r4, r1, #2
 c001818:	591b      	ldr	r3, [r3, r4]
 c00181a:	1844      	adds	r4, r0, r1
 c00181c:	5563      	strb	r3, [r4, r5]
 c00181e:	1c49      	adds	r1, r1, #1
 c001820:	2920      	cmp	r1, #32
 c001822:	dbf7      	blt.n	c001814 <SOCPS_NVICBackup+0x30>
 c001824:	49a0      	ldr	r1, [pc, #640]	; (c001aa8 <.text_92>)
 c001826:	680b      	ldr	r3, [r1, #0]
 c001828:	6743      	str	r3, [r0, #116]	; 0x74
 c00182a:	6849      	ldr	r1, [r1, #4]
 c00182c:	6781      	str	r1, [r0, #120]	; 0x78
 c00182e:	489f      	ldr	r0, [pc, #636]	; (c001aac <.text_93>)
 c001830:	6800      	ldr	r0, [r0, #0]
 c001832:	6090      	str	r0, [r2, #8]
 c001834:	bc30      	pop	{r4, r5}
 c001836:	4770      	bx	lr

0c001838 <SOCPS_NVICReFill>:
 c001838:	b430      	push	{r4, r5}
 c00183a:	2100      	movs	r1, #0
 c00183c:	4b83      	ldr	r3, [pc, #524]	; (c001a4c <.text_85>)
 c00183e:	4882      	ldr	r0, [pc, #520]	; (c001a48 <.text_84>)
 c001840:	6fc2      	ldr	r2, [r0, #124]	; 0x7c
 c001842:	601a      	str	r2, [r3, #0]
 c001844:	2280      	movs	r2, #128	; 0x80
 c001846:	5882      	ldr	r2, [r0, r2]
 c001848:	605a      	str	r2, [r3, #4]
 c00184a:	0002      	movs	r2, r0
 c00184c:	3284      	adds	r2, #132	; 0x84
 c00184e:	6814      	ldr	r4, [r2, #0]
 c001850:	609c      	str	r4, [r3, #8]
 c001852:	4b95      	ldr	r3, [pc, #596]	; (c001aa8 <.text_92>)
 c001854:	6f44      	ldr	r4, [r0, #116]	; 0x74
 c001856:	601c      	str	r4, [r3, #0]
 c001858:	6f84      	ldr	r4, [r0, #120]	; 0x78
 c00185a:	605c      	str	r4, [r3, #4]
 c00185c:	4b90      	ldr	r3, [pc, #576]	; (c001aa0 <.text_90>)
 c00185e:	6ec4      	ldr	r4, [r0, #108]	; 0x6c
 c001860:	601c      	str	r4, [r3, #0]
 c001862:	6f04      	ldr	r4, [r0, #112]	; 0x70
 c001864:	605c      	str	r4, [r3, #4]
 c001866:	1843      	adds	r3, r0, r1
 c001868:	24a8      	movs	r4, #168	; 0xa8
 c00186a:	5d1b      	ldrb	r3, [r3, r4]
 c00186c:	4c8d      	ldr	r4, [pc, #564]	; (c001aa4 <.text_91>)
 c00186e:	008d      	lsls	r5, r1, #2
 c001870:	5163      	str	r3, [r4, r5]
 c001872:	1c49      	adds	r1, r1, #1
 c001874:	2920      	cmp	r1, #32
 c001876:	dbf6      	blt.n	c001866 <SOCPS_NVICReFill+0x2e>
 c001878:	4975      	ldr	r1, [pc, #468]	; (c001a50 <.text_86>)
 c00187a:	6e43      	ldr	r3, [r0, #100]	; 0x64
 c00187c:	600b      	str	r3, [r1, #0]
 c00187e:	6e80      	ldr	r0, [r0, #104]	; 0x68
 c001880:	6048      	str	r0, [r1, #4]
 c001882:	6890      	ldr	r0, [r2, #8]
 c001884:	4989      	ldr	r1, [pc, #548]	; (c001aac <.text_93>)
 c001886:	6008      	str	r0, [r1, #0]
 c001888:	bc30      	pop	{r4, r5}
 c00188a:	4770      	bx	lr

0c00188c <SOCPS_MPUBackup>:
 c00188c:	b410      	push	{r4}
 c00188e:	2200      	movs	r2, #0
 c001890:	486d      	ldr	r0, [pc, #436]	; (c001a48 <.text_84>)
 c001892:	0003      	movs	r3, r0
 c001894:	33c8      	adds	r3, #200	; 0xc8
 c001896:	4986      	ldr	r1, [pc, #536]	; (c001ab0 <.text_94>)
 c001898:	680c      	ldr	r4, [r1, #0]
 c00189a:	601c      	str	r4, [r3, #0]
 c00189c:	6acc      	ldr	r4, [r1, #44]	; 0x2c
 c00189e:	605c      	str	r4, [r3, #4]
 c0018a0:	6b0c      	ldr	r4, [r1, #48]	; 0x30
 c0018a2:	609c      	str	r4, [r3, #8]
 c0018a4:	604a      	str	r2, [r1, #4]
 c0018a6:	0093      	lsls	r3, r2, #2
 c0018a8:	18c3      	adds	r3, r0, r3
 c0018aa:	33d4      	adds	r3, #212	; 0xd4
 c0018ac:	688c      	ldr	r4, [r1, #8]
 c0018ae:	601c      	str	r4, [r3, #0]
 c0018b0:	68cc      	ldr	r4, [r1, #12]
 c0018b2:	611c      	str	r4, [r3, #16]
 c0018b4:	1c52      	adds	r2, r2, #1
 c0018b6:	2a04      	cmp	r2, #4
 c0018b8:	dbf4      	blt.n	c0018a4 <SOCPS_MPUBackup+0x18>
 c0018ba:	bc10      	pop	{r4}
 c0018bc:	4770      	bx	lr

0c0018be <SOCPS_MPUReFill>:
 c0018be:	b430      	push	{r4, r5}
 c0018c0:	2300      	movs	r3, #0
 c0018c2:	487b      	ldr	r0, [pc, #492]	; (c001ab0 <.text_94>)
 c0018c4:	6003      	str	r3, [r0, #0]
 c0018c6:	4960      	ldr	r1, [pc, #384]	; (c001a48 <.text_84>)
 c0018c8:	000a      	movs	r2, r1
 c0018ca:	32c8      	adds	r2, #200	; 0xc8
 c0018cc:	6854      	ldr	r4, [r2, #4]
 c0018ce:	62c4      	str	r4, [r0, #44]	; 0x2c
 c0018d0:	6894      	ldr	r4, [r2, #8]
 c0018d2:	6304      	str	r4, [r0, #48]	; 0x30
 c0018d4:	6043      	str	r3, [r0, #4]
 c0018d6:	009c      	lsls	r4, r3, #2
 c0018d8:	190c      	adds	r4, r1, r4
 c0018da:	34d4      	adds	r4, #212	; 0xd4
 c0018dc:	6825      	ldr	r5, [r4, #0]
 c0018de:	6085      	str	r5, [r0, #8]
 c0018e0:	6924      	ldr	r4, [r4, #16]
 c0018e2:	60c4      	str	r4, [r0, #12]
 c0018e4:	1c5b      	adds	r3, r3, #1
 c0018e6:	2b04      	cmp	r3, #4
 c0018e8:	dbf4      	blt.n	c0018d4 <SOCPS_MPUReFill+0x16>
 c0018ea:	6811      	ldr	r1, [r2, #0]
 c0018ec:	6001      	str	r1, [r0, #0]
 c0018ee:	bc30      	pop	{r4, r5}
 c0018f0:	4770      	bx	lr
	...

0c0018f4 <SOCPS_SleepPG>:
 c0018f4:	b5fe      	push	{r1, r2, r3, r4, r5, r6, r7, lr}
 c0018f6:	2600      	movs	r6, #0
 c0018f8:	0034      	movs	r4, r6
 c0018fa:	9600      	str	r6, [sp, #0]
 c0018fc:	4d6d      	ldr	r5, [pc, #436]	; (c001ab4 <.text_95>)
 c0018fe:	68a8      	ldr	r0, [r5, #8]
 c001900:	2800      	cmp	r0, #0
 c001902:	d006      	beq.n	c001912 <SOCPS_SleepPG+0x1e>
 c001904:	486c      	ldr	r0, [pc, #432]	; (c001ab8 <.text_96>)
 c001906:	6800      	ldr	r0, [r0, #0]
 c001908:	0380      	lsls	r0, r0, #14
 c00190a:	d502      	bpl.n	c001912 <SOCPS_SleepPG+0x1e>
 c00190c:	a051      	add	r0, pc, #324	; (adr r0, c001a54 <.text_87>)
 c00190e:	f7ff f813 	bl	c000938 <?Veneer 18 (3) for DiagPrintf>
 c001912:	2000      	movs	r0, #0
 c001914:	f000 f9e7 	bl	c001ce6 <SOCPS_DsleepWakeStatusSet>
 c001918:	f7ff fa74 	bl	c000e04 <pmu_exec_sleep_hook_funs>
 c00191c:	9001      	str	r0, [sp, #4]
 c00191e:	9801      	ldr	r0, [sp, #4]
 c001920:	281f      	cmp	r0, #31
 c001922:	d00d      	beq.n	c001940 <SOCPS_SleepPG+0x4c>
 c001924:	9801      	ldr	r0, [sp, #4]
 c001926:	f7ff fa7e 	bl	c000e26 <pmu_exec_wakeup_hook_funs>
 c00192a:	4863      	ldr	r0, [pc, #396]	; (c001ab8 <.text_96>)
 c00192c:	6800      	ldr	r0, [r0, #0]
 c00192e:	0380      	lsls	r0, r0, #14
 c001930:	d503      	bpl.n	c00193a <SOCPS_SleepPG+0x46>
 c001932:	9901      	ldr	r1, [sp, #4]
 c001934:	4861      	ldr	r0, [pc, #388]	; (c001abc <.text_97>)
 c001936:	f7fe ffff 	bl	c000938 <?Veneer 18 (3) for DiagPrintf>
 c00193a:	f7ff febb 	bl	c0016b4 <?Veneer 22 (3) for SOCPS_SleepDeInit>
 c00193e:	e081      	b.n	c001a44 <SOCPS_SleepPG+0x150>
 c001940:	4f5f      	ldr	r7, [pc, #380]	; (c001ac0 <.text_98>)
 c001942:	6838      	ldr	r0, [r7, #0]
 c001944:	2180      	movs	r1, #128	; 0x80
 c001946:	0589      	lsls	r1, r1, #22
 c001948:	4301      	orrs	r1, r0
 c00194a:	9100      	str	r1, [sp, #0]
 c00194c:	9800      	ldr	r0, [sp, #0]
 c00194e:	6038      	str	r0, [r7, #0]
 c001950:	4c5c      	ldr	r4, [pc, #368]	; (c001ac4 <.text_99>)
 c001952:	6026      	str	r6, [r4, #0]
 c001954:	4e3c      	ldr	r6, [pc, #240]	; (c001a48 <.text_84>)
 c001956:	485c      	ldr	r0, [pc, #368]	; (c001ac8 <.text_100>)
 c001958:	f7ff fef4 	bl	c001744 <?Veneer 86 (3) for IPC_IERGet>
 c00195c:	21a0      	movs	r1, #160	; 0xa0
 c00195e:	5070      	str	r0, [r6, r1]
 c001960:	f7ff ff40 	bl	c0017e4 <SOCPS_NVICBackup>
 c001964:	f7ff ff92 	bl	c00188c <SOCPS_MPUBackup>
 c001968:	f7ff fef4 	bl	c001754 <?Veneer 87 (3) for SOCPS_MMUBackup>
 c00196c:	f7ff fefa 	bl	c001764 <?Veneer 88 (3) for LOGUART_WaitBusy>
 c001970:	4600      	mov	r0, r0
 c001972:	6030      	str	r0, [r6, #0]
 c001974:	4608      	mov	r0, r1
 c001976:	6070      	str	r0, [r6, #4]
 c001978:	4610      	mov	r0, r2
 c00197a:	60b0      	str	r0, [r6, #8]
 c00197c:	4618      	mov	r0, r3
 c00197e:	60f0      	str	r0, [r6, #12]
 c001980:	4620      	mov	r0, r4
 c001982:	6130      	str	r0, [r6, #16]
 c001984:	4628      	mov	r0, r5
 c001986:	6170      	str	r0, [r6, #20]
 c001988:	4630      	mov	r0, r6
 c00198a:	61b0      	str	r0, [r6, #24]
 c00198c:	4638      	mov	r0, r7
 c00198e:	61f0      	str	r0, [r6, #28]
 c001990:	4640      	mov	r0, r8
 c001992:	6230      	str	r0, [r6, #32]
 c001994:	4648      	mov	r0, r9
 c001996:	6270      	str	r0, [r6, #36]	; 0x24
 c001998:	4650      	mov	r0, sl
 c00199a:	62b0      	str	r0, [r6, #40]	; 0x28
 c00199c:	4658      	mov	r0, fp
 c00199e:	62f0      	str	r0, [r6, #44]	; 0x2c
 c0019a0:	4660      	mov	r0, ip
 c0019a2:	6330      	str	r0, [r6, #48]	; 0x30
 c0019a4:	4668      	mov	r0, sp
 c0019a6:	6370      	str	r0, [r6, #52]	; 0x34
 c0019a8:	0030      	movs	r0, r6
 c0019aa:	3038      	adds	r0, #56	; 0x38
 c0019ac:	4671      	mov	r1, lr
 c0019ae:	6001      	str	r1, [r0, #0]
 c0019b0:	4679      	mov	r1, pc
 c0019b2:	63f1      	str	r1, [r6, #60]	; 0x3c
 c0019b4:	f3ef 8103 	mrs	r1, PSR
 c0019b8:	6431      	str	r1, [r6, #64]	; 0x40
 c0019ba:	bf00      	nop
 c0019bc:	bf00      	nop
 c0019be:	6bf1      	ldr	r1, [r6, #60]	; 0x3c
 c0019c0:	6001      	str	r1, [r0, #0]
 c0019c2:	6b70      	ldr	r0, [r6, #52]	; 0x34
 c0019c4:	219c      	movs	r1, #156	; 0x9c
 c0019c6:	5070      	str	r0, [r6, r1]
 c0019c8:	6820      	ldr	r0, [r4, #0]
 c0019ca:	2801      	cmp	r0, #1
 c0019cc:	d00a      	beq.n	c0019e4 <SOCPS_SleepPG+0xf0>
 c0019ce:	2001      	movs	r0, #1
 c0019d0:	6020      	str	r0, [r4, #0]
 c0019d2:	489f      	ldr	r0, [pc, #636]	; (c001c50 <.text_102>)
 c0019d4:	6801      	ldr	r1, [r0, #0]
 c0019d6:	2280      	movs	r2, #128	; 0x80
 c0019d8:	4391      	bics	r1, r2
 c0019da:	9100      	str	r1, [sp, #0]
 c0019dc:	9900      	ldr	r1, [sp, #0]
 c0019de:	6001      	str	r1, [r0, #0]
 c0019e0:	f7ff fec8 	bl	c001774 <?Veneer 89 (3) for SOCPS_SleepPG_RAM>
 c0019e4:	489a      	ldr	r0, [pc, #616]	; (c001c50 <.text_102>)
 c0019e6:	6801      	ldr	r1, [r0, #0]
 c0019e8:	2280      	movs	r2, #128	; 0x80
 c0019ea:	430a      	orrs	r2, r1
 c0019ec:	9200      	str	r2, [sp, #0]
 c0019ee:	9900      	ldr	r1, [sp, #0]
 c0019f0:	6001      	str	r1, [r0, #0]
 c0019f2:	68e8      	ldr	r0, [r5, #12]
 c0019f4:	2800      	cmp	r0, #0
 c0019f6:	d002      	beq.n	c0019fe <SOCPS_SleepPG+0x10a>
 c0019f8:	2001      	movs	r0, #1
 c0019fa:	f000 fc17 	bl	c00222c <SOCPS_OSC2M_Cmd>
 c0019fe:	6838      	ldr	r0, [r7, #0]
 c001a00:	4d94      	ldr	r5, [pc, #592]	; (c001c54 <.text_103>)
 c001a02:	4005      	ands	r5, r0
 c001a04:	603d      	str	r5, [r7, #0]
 c001a06:	20a4      	movs	r0, #164	; 0xa4
 c001a08:	5830      	ldr	r0, [r6, r0]
 c001a0a:	4993      	ldr	r1, [pc, #588]	; (c001c58 <.text_104>)
 c001a0c:	62c8      	str	r0, [r1, #44]	; 0x2c
 c001a0e:	20a0      	movs	r0, #160	; 0xa0
 c001a10:	5831      	ldr	r1, [r6, r0]
 c001a12:	482d      	ldr	r0, [pc, #180]	; (c001ac8 <.text_100>)
 c001a14:	f7ff feb6 	bl	c001784 <?Veneer 90 (3) for IPC_IERSet>
 c001a18:	48b6      	ldr	r0, [pc, #728]	; (c001cf4 <.text_107>)
 c001a1a:	6800      	ldr	r0, [r0, #0]
 c001a1c:	60a0      	str	r0, [r4, #8]
 c001a1e:	f7ff fe71 	bl	c001704 <?Veneer 31 (3) for SOCPS_AONWakeReason>
 c001a22:	6060      	str	r0, [r4, #4]
 c001a24:	f7ff ff08 	bl	c001838 <SOCPS_NVICReFill>
 c001a28:	f7ff ff49 	bl	c0018be <SOCPS_MPUReFill>
 c001a2c:	f000 fc82 	bl	c002334 <pinmap_wake>
 c001a30:	201f      	movs	r0, #31
 c001a32:	f7ff f9f8 	bl	c000e26 <pmu_exec_wakeup_hook_funs>
 c001a36:	f7ff fe45 	bl	c0016c4 <?Veneer 24 (3) for SOCPS_KM4Wake>
 c001a3a:	2801      	cmp	r0, #1
 c001a3c:	d102      	bne.n	c001a44 <SOCPS_SleepPG+0x150>
 c001a3e:	2080      	movs	r0, #128	; 0x80
 c001a40:	f000 fa9e 	bl	c001f80 <km4_set_wake_event>
 c001a44:	bdf7      	pop	{r0, r1, r2, r4, r5, r6, r7, pc}
	...

0c001a48 <.text_84>:
 c001a48:	000899d8 	.word	0x000899d8

0c001a4c <.text_85>:
 c001a4c:	e000e010 	.word	0xe000e010

0c001a50 <.text_86>:
 c001a50:	e000e100 	.word	0xe000e100

0c001a54 <.text_87>:
 c001a54:	434f530d 	.word	0x434f530d
 c001a58:	535f5350 	.word	0x535f5350
 c001a5c:	7065656c 	.word	0x7065656c
 c001a60:	0a204750 	.word	0x0a204750
 c001a64:	00          	.byte	0x00
 c001a65:	00          	.byte	0x00
	...

0c001a68 <SOCPS_InitSYSIRQ>:
 c001a68:	b580      	push	{r7, lr}
 c001a6a:	48a5      	ldr	r0, [pc, #660]	; (c001d00 <.text_109>)
 c001a6c:	49a5      	ldr	r1, [pc, #660]	; (c001d04 <.text_110>)
 c001a6e:	6048      	str	r0, [r1, #4]
 c001a70:	48a5      	ldr	r0, [pc, #660]	; (c001d08 <.text_111>)
 c001a72:	2100      	movs	r1, #0
 c001a74:	60c1      	str	r1, [r0, #12]
 c001a76:	6800      	ldr	r0, [r0, #0]
 c001a78:	b908      	cbnz	r0, c001a7e <SOCPS_InitSYSIRQ+0x16>
 c001a7a:	f7ff fe3b 	bl	c0016f4 <?Veneer 28 (3) for SOCPS_ClearWakeEvent>
 c001a7e:	2101      	movs	r1, #1
 c001a80:	2003      	movs	r0, #3
 c001a82:	f7ff fe87 	bl	c001794 <?Veneer 91 (3) for SOCPS_SNOOZE_Config>
 c001a86:	2300      	movs	r3, #0
 c001a88:	2200      	movs	r2, #0
 c001a8a:	2100      	movs	r1, #0
 c001a8c:	489f      	ldr	r0, [pc, #636]	; (c001d0c <.text_112>)
 c001a8e:	f7ff fe41 	bl	c001714 <?Veneer 37 (3) for irq_register>
 c001a92:	2000      	movs	r0, #0
 c001a94:	f7ff fe46 	bl	c001724 <?Veneer 38 (3) for irq_enable>
 c001a98:	bd01      	pop	{r0, pc}
	...

0c001a9c <.text_89>:
 c001a9c:	00089a74 	.word	0x00089a74

0c001aa0 <.text_90>:
 c001aa0:	e000e180 	.word	0xe000e180

0c001aa4 <.text_91>:
 c001aa4:	e000e400 	.word	0xe000e400

0c001aa8 <.text_92>:
 c001aa8:	e000e200 	.word	0xe000e200

0c001aac <.text_93>:
 c001aac:	e000ed08 	.word	0xe000ed08

0c001ab0 <.text_94>:
 c001ab0:	e000ed94 	.word	0xe000ed94

0c001ab4 <.text_95>:
 c001ab4:	0008441c 	.word	0x0008441c

0c001ab8 <.text_96>:
 c001ab8:	000801cc 	.word	0x000801cc

0c001abc <.text_97>:
 c001abc:	0008394c 	.word	0x0008394c

0c001ac0 <.text_98>:
 c001ac0:	480003f8 	.word	0x480003f8

0c001ac4 <.text_99>:
 c001ac4:	00089aec 	.word	0x00089aec

0c001ac8 <.text_100>:
 c001ac8:	48006000 	.word	0x48006000

0c001acc <SOCPS_SleepInit>:
 c001acc:	b5f0      	push	{r4, r5, r6, r7, lr}
 c001ace:	b081      	sub	sp, #4
 c001ad0:	4c8f      	ldr	r4, [pc, #572]	; (c001d10 <.text_113>)
 c001ad2:	68e0      	ldr	r0, [r4, #12]
 c001ad4:	4d8f      	ldr	r5, [pc, #572]	; (c001d14 <.text_114>)
 c001ad6:	b160      	cbz	r0, c001af2 <SOCPS_SleepInit+0x26>
 c001ad8:	64a8      	str	r0, [r5, #72]	; 0x48
 c001ada:	68a0      	ldr	r0, [r4, #8]
 c001adc:	498e      	ldr	r1, [pc, #568]	; (c001d18 <.text_115>)
 c001ade:	6008      	str	r0, [r1, #0]
 c001ae0:	2101      	movs	r1, #1
 c001ae2:	6820      	ldr	r0, [r4, #0]
 c001ae4:	f7ff fdf6 	bl	c0016d4 <?Veneer 26 (3) for SOCPS_SetWakeEvent>
 c001ae8:	6860      	ldr	r0, [r4, #4]
 c001aea:	498c      	ldr	r1, [pc, #560]	; (c001d1c <.text_116>)
 c001aec:	63c8      	str	r0, [r1, #60]	; 0x3c
 c001aee:	b001      	add	sp, #4
 c001af0:	bdf0      	pop	{r4, r5, r6, r7, pc}
 c001af2:	6ca8      	ldr	r0, [r5, #72]	; 0x48
 c001af4:	60e0      	str	r0, [r4, #12]
 c001af6:	498a      	ldr	r1, [pc, #552]	; (c001d20 <.text_117>)
 c001af8:	2200      	movs	r2, #0
 c001afa:	43d2      	mvns	r2, r2
 c001afc:	e008      	b.n	c001b10 <SOCPS_SleepInit+0x44>
 c001afe:	4398      	bics	r0, r3
 c001b00:	60e0      	str	r0, [r4, #12]
 c001b02:	e004      	b.n	c001b0e <SOCPS_SleepInit+0x42>
 c001b04:	684e      	ldr	r6, [r1, #4]
 c001b06:	2e01      	cmp	r6, #1
 c001b08:	d1f9      	bne.n	c001afe <SOCPS_SleepInit+0x32>
 c001b0a:	4303      	orrs	r3, r0
 c001b0c:	60e3      	str	r3, [r4, #12]
 c001b0e:	3108      	adds	r1, #8
 c001b10:	68e0      	ldr	r0, [r4, #12]
 c001b12:	680b      	ldr	r3, [r1, #0]
 c001b14:	4293      	cmp	r3, r2
 c001b16:	d1f5      	bne.n	c001b04 <SOCPS_SleepInit+0x38>
 c001b18:	0641      	lsls	r1, r0, #25
 c001b1a:	d409      	bmi.n	c001b30 <SOCPS_SleepInit+0x64>
 c001b1c:	2180      	movs	r1, #128	; 0x80
 c001b1e:	0249      	lsls	r1, r1, #9
 c001b20:	4301      	orrs	r1, r0
 c001b22:	60e1      	str	r1, [r4, #12]
 c001b24:	68e0      	ldr	r0, [r4, #12]
 c001b26:	0581      	lsls	r1, r0, #22
 c001b28:	d505      	bpl.n	c001b36 <SOCPS_SleepInit+0x6a>
 c001b2a:	497e      	ldr	r1, [pc, #504]	; (c001d24 <.text_118>)
 c001b2c:	4001      	ands	r1, r0
 c001b2e:	e005      	b.n	c001b3c <SOCPS_SleepInit+0x70>
 c001b30:	497d      	ldr	r1, [pc, #500]	; (c001d28 <.text_119>)
 c001b32:	4001      	ands	r1, r0
 c001b34:	e7f5      	b.n	c001b22 <SOCPS_SleepInit+0x56>
 c001b36:	2180      	movs	r1, #128	; 0x80
 c001b38:	0289      	lsls	r1, r1, #10
 c001b3a:	4301      	orrs	r1, r0
 c001b3c:	60e1      	str	r1, [r4, #12]
 c001b3e:	68e0      	ldr	r0, [r4, #12]
 c001b40:	64a8      	str	r0, [r5, #72]	; 0x48
 c001b42:	2600      	movs	r6, #0
 c001b44:	6026      	str	r6, [r4, #0]
 c001b46:	4979      	ldr	r1, [pc, #484]	; (c001d2c <.text_120>)
 c001b48:	4613      	mov	r3, r2
 c001b4a:	e008      	b.n	c001b5e <SOCPS_SleepInit+0x92>
 c001b4c:	4390      	bics	r0, r2
 c001b4e:	e004      	b.n	c001b5a <SOCPS_SleepInit+0x8e>
 c001b50:	684f      	ldr	r7, [r1, #4]
 c001b52:	2f01      	cmp	r7, #1
 c001b54:	d1fa      	bne.n	c001b4c <SOCPS_SleepInit+0x80>
 c001b56:	4302      	orrs	r2, r0
 c001b58:	0010      	movs	r0, r2
 c001b5a:	6020      	str	r0, [r4, #0]
 c001b5c:	3108      	adds	r1, #8
 c001b5e:	6820      	ldr	r0, [r4, #0]
 c001b60:	680a      	ldr	r2, [r1, #0]
 c001b62:	429a      	cmp	r2, r3
 c001b64:	d1f4      	bne.n	c001b50 <SOCPS_SleepInit+0x84>
 c001b66:	2101      	movs	r1, #1
 c001b68:	f7ff fdb4 	bl	c0016d4 <?Veneer 26 (3) for SOCPS_SetWakeEvent>
 c001b6c:	6066      	str	r6, [r4, #4]
 c001b6e:	4970      	ldr	r1, [pc, #448]	; (c001d30 <.text_121>)
 c001b70:	2300      	movs	r3, #0
 c001b72:	43db      	mvns	r3, r3
 c001b74:	e008      	b.n	c001b88 <SOCPS_SleepInit+0xbc>
 c001b76:	4390      	bics	r0, r2
 c001b78:	e004      	b.n	c001b84 <SOCPS_SleepInit+0xb8>
 c001b7a:	684f      	ldr	r7, [r1, #4]
 c001b7c:	2f01      	cmp	r7, #1
 c001b7e:	d1fa      	bne.n	c001b76 <SOCPS_SleepInit+0xaa>
 c001b80:	4302      	orrs	r2, r0
 c001b82:	0010      	movs	r0, r2
 c001b84:	6060      	str	r0, [r4, #4]
 c001b86:	3108      	adds	r1, #8
 c001b88:	6860      	ldr	r0, [r4, #4]
 c001b8a:	680a      	ldr	r2, [r1, #0]
 c001b8c:	429a      	cmp	r2, r3
 c001b8e:	d1f4      	bne.n	c001b7a <SOCPS_SleepInit+0xae>
 c001b90:	2101      	movs	r1, #1
 c001b92:	f7ff f91f 	bl	c000dd4 <?Veneer 92 (3) for SOCPS_SetWakeEventAON>
 c001b96:	4860      	ldr	r0, [pc, #384]	; (c001d18 <.text_115>)
 c001b98:	6800      	ldr	r0, [r0, #0]
 c001b9a:	60a0      	str	r0, [r4, #8]
 c001b9c:	4965      	ldr	r1, [pc, #404]	; (c001d34 <.text_122>)
 c001b9e:	2300      	movs	r3, #0
 c001ba0:	43db      	mvns	r3, r3
 c001ba2:	e008      	b.n	c001bb6 <SOCPS_SleepInit+0xea>
 c001ba4:	4390      	bics	r0, r2
 c001ba6:	e004      	b.n	c001bb2 <SOCPS_SleepInit+0xe6>
 c001ba8:	684f      	ldr	r7, [r1, #4]
 c001baa:	2f01      	cmp	r7, #1
 c001bac:	d1fa      	bne.n	c001ba4 <SOCPS_SleepInit+0xd8>
 c001bae:	4302      	orrs	r2, r0
 c001bb0:	0010      	movs	r0, r2
 c001bb2:	60a0      	str	r0, [r4, #8]
 c001bb4:	3108      	adds	r1, #8
 c001bb6:	68a0      	ldr	r0, [r4, #8]
 c001bb8:	680a      	ldr	r2, [r1, #0]
 c001bba:	429a      	cmp	r2, r3
 c001bbc:	d1f4      	bne.n	c001ba8 <SOCPS_SleepInit+0xdc>
 c001bbe:	4956      	ldr	r1, [pc, #344]	; (c001d18 <.text_115>)
 c001bc0:	6008      	str	r0, [r1, #0]
 c001bc2:	6828      	ldr	r0, [r5, #0]
 c001bc4:	495c      	ldr	r1, [pc, #368]	; (c001d38 <.text_123>)
 c001bc6:	e008      	b.n	c001bda <SOCPS_SleepInit+0x10e>
 c001bc8:	4390      	bics	r0, r2
 c001bca:	e005      	b.n	c001bd8 <SOCPS_SleepInit+0x10c>
 c001bcc:	684c      	ldr	r4, [r1, #4]
 c001bce:	2c01      	cmp	r4, #1
 c001bd0:	d1fa      	bne.n	c001bc8 <SOCPS_SleepInit+0xfc>
 c001bd2:	0004      	movs	r4, r0
 c001bd4:	0010      	movs	r0, r2
 c001bd6:	4320      	orrs	r0, r4
 c001bd8:	3108      	adds	r1, #8
 c001bda:	680a      	ldr	r2, [r1, #0]
 c001bdc:	429a      	cmp	r2, r3
 c001bde:	d1f5      	bne.n	c001bcc <SOCPS_SleepInit+0x100>
 c001be0:	6028      	str	r0, [r5, #0]
 c001be2:	484e      	ldr	r0, [pc, #312]	; (c001d1c <.text_116>)
 c001be4:	6801      	ldr	r1, [r0, #0]
 c001be6:	4a55      	ldr	r2, [pc, #340]	; (c001d3c <.text_124>)
 c001be8:	e008      	b.n	c001bfc <SOCPS_SleepInit+0x130>
 c001bea:	4399      	bics	r1, r3
 c001bec:	e005      	b.n	c001bfa <SOCPS_SleepInit+0x12e>
 c001bee:	6854      	ldr	r4, [r2, #4]
 c001bf0:	2c01      	cmp	r4, #1
 c001bf2:	d1fa      	bne.n	c001bea <SOCPS_SleepInit+0x11e>
 c001bf4:	000c      	movs	r4, r1
 c001bf6:	0019      	movs	r1, r3
 c001bf8:	4321      	orrs	r1, r4
 c001bfa:	3208      	adds	r2, #8
 c001bfc:	6813      	ldr	r3, [r2, #0]
 c001bfe:	2400      	movs	r4, #0
 c001c00:	43e4      	mvns	r4, r4
 c001c02:	42a3      	cmp	r3, r4
 c001c04:	d1f3      	bne.n	c001bee <SOCPS_SleepInit+0x122>
 c001c06:	6001      	str	r1, [r0, #0]
 c001c08:	f7ff fd6c 	bl	c0016e4 <?Veneer 27 (3) for SOCPS_ClearWakePin>
 c001c0c:	4c4c      	ldr	r4, [pc, #304]	; (c001d40 <.text_125>)
 c001c0e:	4d4d      	ldr	r5, [pc, #308]	; (c001d44 <.text_126>)
 c001c10:	e00d      	b.n	c001c2e <SOCPS_SleepInit+0x162>
 c001c12:	2102      	movs	r1, #2
 c001c14:	f7ff fd8e 	bl	c001734 <?Veneer 78 (3) for PAD_PullCtrl>
 c001c18:	211f      	movs	r1, #31
 c001c1a:	7838      	ldrb	r0, [r7, #0]
 c001c1c:	f7ff fdc2 	bl	c0017a4 <?Veneer 93 (3) for Pinmux_Config>
 c001c20:	68a9      	ldr	r1, [r5, #8]
 c001c22:	0030      	movs	r0, r6
 c001c24:	f7ff fdc6 	bl	c0017b4 <?Veneer 94 (3) for SOCPS_SetWakepin>
 c001c28:	1c76      	adds	r6, r6, #1
 c001c2a:	350c      	adds	r5, #12
 c001c2c:	1ce4      	adds	r4, r4, #3
 c001c2e:	6828      	ldr	r0, [r5, #0]
 c001c30:	2100      	movs	r1, #0
 c001c32:	43c9      	mvns	r1, r1
 c001c34:	4288      	cmp	r0, r1
 c001c36:	d100      	bne.n	c001c3a <SOCPS_SleepInit+0x16e>
 c001c38:	e759      	b.n	c001aee <SOCPS_SleepInit+0x22>
 c001c3a:	6869      	ldr	r1, [r5, #4]
 c001c3c:	2901      	cmp	r1, #1
 c001c3e:	d1f3      	bne.n	c001c28 <SOCPS_SleepInit+0x15c>
 c001c40:	1827      	adds	r7, r4, r0
 c001c42:	7838      	ldrb	r0, [r7, #0]
 c001c44:	68a9      	ldr	r1, [r5, #8]
 c001c46:	2900      	cmp	r1, #0
 c001c48:	d0e3      	beq.n	c001c12 <SOCPS_SleepInit+0x146>
 c001c4a:	2101      	movs	r1, #1
 c001c4c:	e7e2      	b.n	c001c14 <SOCPS_SleepInit+0x148>
	...

0c001c50 <.text_102>:
 c001c50:	48000004 	.word	0x48000004

0c001c54 <.text_103>:
 c001c54:	dfffffff 	.word	0xdfffffff

0c001c58 <.text_104>:
 c001c58:	00080000 	.word	0x00080000

0c001c5c <SOCPS_DsleepInit>:
 c001c5c:	b5f8      	push	{r3, r4, r5, r6, r7, lr}
 c001c5e:	2400      	movs	r4, #0
 c001c60:	2600      	movs	r6, #0
 c001c62:	2100      	movs	r1, #0
 c001c64:	2080      	movs	r0, #128	; 0x80
 c001c66:	0580      	lsls	r0, r0, #22
 c001c68:	f7ff fd34 	bl	c0016d4 <?Veneer 26 (3) for SOCPS_SetWakeEvent>
 c001c6c:	2700      	movs	r7, #0
 c001c6e:	43ff      	mvns	r7, r7
 c001c70:	2000      	movs	r0, #0
 c001c72:	e009      	b.n	c001c88 <SOCPS_DsleepInit+0x2c>
 c001c74:	6809      	ldr	r1, [r1, #0]
 c001c76:	4388      	bics	r0, r1
 c001c78:	e005      	b.n	c001c86 <SOCPS_DsleepInit+0x2a>
 c001c7a:	684a      	ldr	r2, [r1, #4]
 c001c7c:	2a01      	cmp	r2, #1
 c001c7e:	d1f9      	bne.n	c001c74 <SOCPS_DsleepInit+0x18>
 c001c80:	0002      	movs	r2, r0
 c001c82:	6808      	ldr	r0, [r1, #0]
 c001c84:	4310      	orrs	r0, r2
 c001c86:	1c76      	adds	r6, r6, #1
 c001c88:	492f      	ldr	r1, [pc, #188]	; (c001d48 <.text_127>)
 c001c8a:	00f2      	lsls	r2, r6, #3
 c001c8c:	1889      	adds	r1, r1, r2
 c001c8e:	680a      	ldr	r2, [r1, #0]
 c001c90:	42ba      	cmp	r2, r7
 c001c92:	d1f2      	bne.n	c001c7a <SOCPS_DsleepInit+0x1e>
 c001c94:	2101      	movs	r1, #1
 c001c96:	f7ff f89d 	bl	c000dd4 <?Veneer 92 (3) for SOCPS_SetWakeEventAON>
 c001c9a:	f7ff fd23 	bl	c0016e4 <?Veneer 27 (3) for SOCPS_ClearWakePin>
 c001c9e:	e01a      	b.n	c001cd6 <SOCPS_DsleepInit+0x7a>
 c001ca0:	2102      	movs	r1, #2
 c001ca2:	e00d      	b.n	c001cc0 <SOCPS_DsleepInit+0x64>
 c001ca4:	6868      	ldr	r0, [r5, #4]
 c001ca6:	2801      	cmp	r0, #1
 c001ca8:	d114      	bne.n	c001cd4 <SOCPS_DsleepInit+0x78>
 c001caa:	6828      	ldr	r0, [r5, #0]
 c001cac:	4924      	ldr	r1, [pc, #144]	; (c001d40 <.text_125>)
 c001cae:	0062      	lsls	r2, r4, #1
 c001cb0:	1912      	adds	r2, r2, r4
 c001cb2:	1889      	adds	r1, r1, r2
 c001cb4:	180e      	adds	r6, r1, r0
 c001cb6:	7830      	ldrb	r0, [r6, #0]
 c001cb8:	68a9      	ldr	r1, [r5, #8]
 c001cba:	2900      	cmp	r1, #0
 c001cbc:	d0f0      	beq.n	c001ca0 <SOCPS_DsleepInit+0x44>
 c001cbe:	2101      	movs	r1, #1
 c001cc0:	f7ff fd38 	bl	c001734 <?Veneer 78 (3) for PAD_PullCtrl>
 c001cc4:	211f      	movs	r1, #31
 c001cc6:	7830      	ldrb	r0, [r6, #0]
 c001cc8:	f7ff fd6c 	bl	c0017a4 <?Veneer 93 (3) for Pinmux_Config>
 c001ccc:	68a9      	ldr	r1, [r5, #8]
 c001cce:	0020      	movs	r0, r4
 c001cd0:	f7ff fd70 	bl	c0017b4 <?Veneer 94 (3) for SOCPS_SetWakepin>
 c001cd4:	1c64      	adds	r4, r4, #1
 c001cd6:	481b      	ldr	r0, [pc, #108]	; (c001d44 <.text_126>)
 c001cd8:	210c      	movs	r1, #12
 c001cda:	4361      	muls	r1, r4
 c001cdc:	1845      	adds	r5, r0, r1
 c001cde:	6828      	ldr	r0, [r5, #0]
 c001ce0:	42b8      	cmp	r0, r7
 c001ce2:	d1df      	bne.n	c001ca4 <SOCPS_DsleepInit+0x48>
 c001ce4:	bdf1      	pop	{r0, r4, r5, r6, r7, pc}

0c001ce6 <SOCPS_DsleepWakeStatusSet>:
 c001ce6:	4908      	ldr	r1, [pc, #32]	; (c001d08 <.text_111>)
 c001ce8:	2801      	cmp	r0, #1
 c001cea:	d000      	beq.n	c001cee <SOCPS_DsleepWakeStatusSet+0x8>
 c001cec:	2000      	movs	r0, #0
 c001cee:	6008      	str	r0, [r1, #0]
 c001cf0:	4770      	bx	lr
	...

0c001cf4 <.text_107>:
 c001cf4:	48000304 	.word	0x48000304

0c001cf8 <SOCPS_DsleepWakeStatusGet>:
 c001cf8:	4803      	ldr	r0, [pc, #12]	; (c001d08 <.text_111>)
 c001cfa:	6800      	ldr	r0, [r0, #0]
 c001cfc:	4770      	bx	lr
	...

0c001d00 <.text_109>:
 c001d00:	00083699 	.word	0x00083699

0c001d04 <.text_110>:
 c001d04:	00083000 	.word	0x00083000

0c001d08 <.text_111>:
 c001d08:	480002f4 	.word	0x480002f4

0c001d0c <.text_112>:
 c001d0c:	00083623 	.word	0x00083623

0c001d10 <.text_113>:
 c001d10:	00089b00 	.word	0x00089b00

0c001d14 <.text_114>:
 c001d14:	480002d8 	.word	0x480002d8

0c001d18 <.text_115>:
 c001d18:	48000b08 	.word	0x48000b08

0c001d1c <.text_116>:
 c001d1c:	4800001c 	.word	0x4800001c

0c001d20 <.text_117>:
 c001d20:	00084494 	.word	0x00084494

0c001d24 <.text_118>:
 c001d24:	fffdffff 	.word	0xfffdffff

0c001d28 <.text_119>:
 c001d28:	fffeffff 	.word	0xfffeffff

0c001d2c <.text_120>:
 c001d2c:	00084204 	.word	0x00084204

0c001d30 <.text_121>:
 c001d30:	0008426c 	.word	0x0008426c

0c001d34 <.text_122>:
 c001d34:	000844ec 	.word	0x000844ec

0c001d38 <.text_123>:
 c001d38:	000845bc 	.word	0x000845bc

0c001d3c <.text_124>:
 c001d3c:	00084634 	.word	0x00084634

0c001d40 <.text_125>:
 c001d40:	000843d4 	.word	0x000843d4

0c001d44 <.text_126>:
 c001d44:	000843e0 	.word	0x000843e0

0c001d48 <.text_127>:
 c001d48:	0008439c 	.word	0x0008439c

0c001d4c <?Veneer 29 (3) for SOCPS_AudioLDO>:
 c001d4c:	b408      	push	{r3}
 c001d4e:	4b02      	ldr	r3, [pc, #8]	; (c001d58 <?Veneer 29 (3) for SOCPS_AudioLDO+0xc>)
 c001d50:	469c      	mov	ip, r3
 c001d52:	bc08      	pop	{r3}
 c001d54:	4760      	bx	ip
 c001d56:	46c0      	nop			; (mov r8, r8)
 c001d58:	00083a2f 	.word	0x00083a2f

0c001d5c <?Veneer 40 (3) for FLASH_ClockSwitch>:
 c001d5c:	b408      	push	{r3}
 c001d5e:	4b02      	ldr	r3, [pc, #8]	; (c001d68 <?Veneer 40 (3) for FLASH_ClockSwitch+0xc>)
 c001d60:	469c      	mov	ip, r3
 c001d62:	bc08      	pop	{r3}
 c001d64:	4760      	bx	ip
 c001d66:	46c0      	nop			; (mov r8, r8)
 c001d68:	00083129 	.word	0x00083129

0c001d6c <?Veneer 43 (3) for FLASH_Write_Lock>:
 c001d6c:	b408      	push	{r3}
 c001d6e:	4b02      	ldr	r3, [pc, #8]	; (c001d78 <?Veneer 43 (3) for FLASH_Write_Lock+0xc>)
 c001d70:	469c      	mov	ip, r3
 c001d72:	bc08      	pop	{r3}
 c001d74:	4760      	bx	ip
 c001d76:	46c0      	nop			; (mov r8, r8)
 c001d78:	00083079 	.word	0x00083079

0c001d7c <?Veneer 47 (3) for SOCPS_DeepSleep_RAM>:
 c001d7c:	b408      	push	{r3}
 c001d7e:	4b02      	ldr	r3, [pc, #8]	; (c001d88 <?Veneer 47 (3) for SOCPS_DeepSleep_RAM+0xc>)
 c001d80:	469c      	mov	ip, r3
 c001d82:	bc08      	pop	{r3}
 c001d84:	4760      	bx	ip
 c001d86:	46c0      	nop			; (mov r8, r8)
 c001d88:	00083cd1 	.word	0x00083cd1

0c001d8c <?Veneer 74 (3) for BOOT_ROM_CM4PON>:
 c001d8c:	b408      	push	{r3}
 c001d8e:	4b02      	ldr	r3, [pc, #8]	; (c001d98 <?Veneer 74 (3) for BOOT_ROM_CM4PON+0xc>)
 c001d90:	469c      	mov	ip, r3
 c001d92:	bc08      	pop	{r3}
 c001d94:	4760      	bx	ip
 c001d96:	46c0      	nop			; (mov r8, r8)
 c001d98:	000043f9 	.word	0x000043f9

0c001d9c <?Veneer 75 (3) for LOGUART_GetChar>:
 c001d9c:	b408      	push	{r3}
 c001d9e:	4b02      	ldr	r3, [pc, #8]	; (c001da8 <?Veneer 75 (3) for LOGUART_GetChar+0xc>)
 c001da0:	469c      	mov	ip, r3
 c001da2:	bc08      	pop	{r3}
 c001da4:	4760      	bx	ip
 c001da6:	46c0      	nop			; (mov r8, r8)
 c001da8:	00003221 	.word	0x00003221

0c001dac <?Veneer 76 (3) for LOGUART_Readable>:
 c001dac:	b408      	push	{r3}
 c001dae:	4b02      	ldr	r3, [pc, #8]	; (c001db8 <?Veneer 76 (3) for LOGUART_Readable+0xc>)
 c001db0:	469c      	mov	ip, r3
 c001db2:	bc08      	pop	{r3}
 c001db4:	4760      	bx	ip
 c001db6:	46c0      	nop			; (mov r8, r8)
 c001db8:	00003239 	.word	0x00003239

0c001dbc <?Veneer 77 (3) for FLASH_Write_Unlock>:
 c001dbc:	b408      	push	{r3}
 c001dbe:	4b02      	ldr	r3, [pc, #8]	; (c001dc8 <?Veneer 77 (3) for FLASH_Write_Unlock+0xc>)
 c001dc0:	469c      	mov	ip, r3
 c001dc2:	bc08      	pop	{r3}
 c001dc4:	4760      	bx	ip
 c001dc6:	46c0      	nop			; (mov r8, r8)
 c001dc8:	000830c5 	.word	0x000830c5

0c001dcc <km4_status_on>:
 c001dcc:	488c      	ldr	r0, [pc, #560]	; (c002000 <??DataTable20>)
 c001dce:	6800      	ldr	r0, [r0, #0]
 c001dd0:	2180      	movs	r1, #128	; 0x80
 c001dd2:	0249      	lsls	r1, r1, #9
 c001dd4:	4008      	ands	r0, r1
 c001dd6:	1e40      	subs	r0, r0, #1
 c001dd8:	4180      	sbcs	r0, r0
 c001dda:	43c0      	mvns	r0, r0
 c001ddc:	0fc0      	lsrs	r0, r0, #31
 c001dde:	4770      	bx	lr

0c001de0 <km4_pm_init>:
 c001de0:	4770      	bx	lr

0c001de2 <km4_boot_on>:
 c001de2:	b580      	push	{r7, lr}
 c001de4:	2003      	movs	r0, #3
 c001de6:	f7ff f931 	bl	c00104c <pmu_acquire_wakelock>
 c001dea:	4886      	ldr	r0, [pc, #536]	; (c002004 <??DataTable20_1>)
 c001dec:	6801      	ldr	r1, [r0, #0]
 c001dee:	2280      	movs	r2, #128	; 0x80
 c001df0:	0492      	lsls	r2, r2, #18
 c001df2:	430a      	orrs	r2, r1
 c001df4:	6002      	str	r2, [r0, #0]
 c001df6:	4884      	ldr	r0, [pc, #528]	; (c002008 <??DataTable20_2>)
 c001df8:	f7ff ffc8 	bl	c001d8c <?Veneer 74 (3) for BOOT_ROM_CM4PON>
 c001dfc:	f000 fadc 	bl	c0023b8 <ipc_table_init>
 c001e00:	bd01      	pop	{r0, pc}
	...

0c001e04 <km4_power_gate>:
 c001e04:	487e      	ldr	r0, [pc, #504]	; (c002000 <??DataTable20>)
 c001e06:	6800      	ldr	r0, [r0, #0]
 c001e08:	03c0      	lsls	r0, r0, #15
 c001e0a:	d400      	bmi.n	c001e0e <??km4_power_gate_0>
 c001e0c:	4770      	bx	lr

0c001e0e <??km4_power_gate_0>:
 c001e0e:	b580      	push	{r7, lr}
 c001e10:	487e      	ldr	r0, [pc, #504]	; (c00200c <??DataTable20_3>)
 c001e12:	6880      	ldr	r0, [r0, #8]
 c001e14:	0100      	lsls	r0, r0, #4
 c001e16:	d502      	bpl.n	c001e1e <??km4_power_gate_1>
 c001e18:	a008      	add	r0, pc, #32	; (adr r0, c001e3c <?_0>)
 c001e1a:	f7fe fd8d 	bl	c000938 <?Veneer 18 (3) for DiagPrintf>

0c001e1e <??km4_power_gate_1>:
 c001e1e:	487c      	ldr	r0, [pc, #496]	; (c002010 <??DataTable20_4>)
 c001e20:	6800      	ldr	r0, [r0, #0]
 c001e22:	07c0      	lsls	r0, r0, #31
 c001e24:	d5fb      	bpl.n	c001e1e <??km4_power_gate_1>
 c001e26:	48b0      	ldr	r0, [pc, #704]	; (c0020e8 <??DataTable21>)
 c001e28:	f7ff ffb0 	bl	c001d8c <?Veneer 74 (3) for BOOT_ROM_CM4PON>
 c001e2c:	2003      	movs	r0, #3
 c001e2e:	f7ff f914 	bl	c00105a <pmu_release_wakelock>
 c001e32:	2000      	movs	r0, #0
 c001e34:	f7ff f911 	bl	c00105a <pmu_release_wakelock>
 c001e38:	bd01      	pop	{r0, pc}
	...

0c001e3c <?_0>:
 c001e3c:	4d5b 444f 4c55 5f45 4d4b 2d34 454c 4556     [MODULE_KM4-LEVE
 c001e4c:	5f4c 4e49 4f46 3a5d 344d 0a47 0000 0000     L_INFO]:M4G.....

0c001e5c <km4_power_wake>:
 c001e5c:	4868      	ldr	r0, [pc, #416]	; (c002000 <??DataTable20>)
 c001e5e:	6800      	ldr	r0, [r0, #0]
 c001e60:	03c0      	lsls	r0, r0, #15
 c001e62:	d500      	bpl.n	c001e66 <??km4_power_wake_0>
 c001e64:	4770      	bx	lr

0c001e66 <??km4_power_wake_0>:
 c001e66:	b500      	push	{lr}
 c001e68:	b081      	sub	sp, #4
 c001e6a:	4868      	ldr	r0, [pc, #416]	; (c00200c <??DataTable20_3>)
 c001e6c:	6880      	ldr	r0, [r0, #8]
 c001e6e:	0100      	lsls	r0, r0, #4
 c001e70:	d503      	bpl.n	c001e7a <??km4_power_wake_1>
 c001e72:	bf00      	nop
 c001e74:	a0ac      	add	r0, pc, #688	; (adr r0, c002128 <?_1>)
 c001e76:	f7fe fd5f 	bl	c000938 <?Veneer 18 (3) for DiagPrintf>

0c001e7a <??km4_power_wake_1>:
 c001e7a:	2003      	movs	r0, #3
 c001e7c:	f7ff f8e6 	bl	c00104c <pmu_acquire_wakelock>
 c001e80:	489a      	ldr	r0, [pc, #616]	; (c0020ec <??DataTable22>)
 c001e82:	f7ff ff83 	bl	c001d8c <?Veneer 74 (3) for BOOT_ROM_CM4PON>
 c001e86:	b001      	add	sp, #4
 c001e88:	bd00      	pop	{pc}
	...

0c001e8c <km4_clock_gate>:
 c001e8c:	485c      	ldr	r0, [pc, #368]	; (c002000 <??DataTable20>)
 c001e8e:	6800      	ldr	r0, [r0, #0]
 c001e90:	03c0      	lsls	r0, r0, #15
 c001e92:	d400      	bmi.n	c001e96 <??km4_clock_gate_0>
 c001e94:	4770      	bx	lr

0c001e96 <??km4_clock_gate_0>:
 c001e96:	b538      	push	{r3, r4, r5, lr}
 c001e98:	2480      	movs	r4, #128	; 0x80
 c001e9a:	0524      	lsls	r4, r4, #20
 c001e9c:	4d5b      	ldr	r5, [pc, #364]	; (c00200c <??DataTable20_3>)
 c001e9e:	68a8      	ldr	r0, [r5, #8]
 c001ea0:	4020      	ands	r0, r4
 c001ea2:	d002      	beq.n	c001eaa <??km4_clock_gate_1>
 c001ea4:	a0a8      	add	r0, pc, #672	; (adr r0, c002148 <?_2>)
 c001ea6:	f7fe fd47 	bl	c000938 <?Veneer 18 (3) for DiagPrintf>

0c001eaa <??km4_clock_gate_1>:
 c001eaa:	4859      	ldr	r0, [pc, #356]	; (c002010 <??DataTable20_4>)
 c001eac:	6800      	ldr	r0, [r0, #0]
 c001eae:	07c0      	lsls	r0, r0, #31
 c001eb0:	d5fb      	bpl.n	c001eaa <??km4_clock_gate_1>
 c001eb2:	488f      	ldr	r0, [pc, #572]	; (c0020f0 <??DataTable22_1>)
 c001eb4:	f7ff ff6a 	bl	c001d8c <?Veneer 74 (3) for BOOT_ROM_CM4PON>
 c001eb8:	68a8      	ldr	r0, [r5, #8]
 c001eba:	4004      	ands	r4, r0
 c001ebc:	d003      	beq.n	c001ec6 <??km4_clock_gate_2>
 c001ebe:	bf00      	nop
 c001ec0:	a0a9      	add	r0, pc, #676	; (adr r0, c002168 <?_3>)
 c001ec2:	f7fe fd39 	bl	c000938 <?Veneer 18 (3) for DiagPrintf>

0c001ec6 <??km4_clock_gate_2>:
 c001ec6:	2003      	movs	r0, #3
 c001ec8:	f7ff f8c7 	bl	c00105a <pmu_release_wakelock>
 c001ecc:	2000      	movs	r0, #0
 c001ece:	f7ff f8c4 	bl	c00105a <pmu_release_wakelock>
 c001ed2:	bd31      	pop	{r0, r4, r5, pc}

0c001ed4 <km4_clock_on>:
 c001ed4:	484a      	ldr	r0, [pc, #296]	; (c002000 <??DataTable20>)
 c001ed6:	6800      	ldr	r0, [r0, #0]
 c001ed8:	03c0      	lsls	r0, r0, #15
 c001eda:	d500      	bpl.n	c001ede <??km4_clock_on_0>
 c001edc:	4770      	bx	lr

0c001ede <??km4_clock_on_0>:
 c001ede:	b530      	push	{r4, r5, lr}
 c001ee0:	b081      	sub	sp, #4
 c001ee2:	2480      	movs	r4, #128	; 0x80
 c001ee4:	0524      	lsls	r4, r4, #20
 c001ee6:	4d49      	ldr	r5, [pc, #292]	; (c00200c <??DataTable20_3>)
 c001ee8:	68a8      	ldr	r0, [r5, #8]
 c001eea:	4020      	ands	r0, r4
 c001eec:	d003      	beq.n	c001ef6 <??km4_clock_on_1>
 c001eee:	bf00      	nop
 c001ef0:	a0a5      	add	r0, pc, #660	; (adr r0, c002188 <?_4>)
 c001ef2:	f7fe fd21 	bl	c000938 <?Veneer 18 (3) for DiagPrintf>

0c001ef6 <??km4_clock_on_1>:
 c001ef6:	2003      	movs	r0, #3
 c001ef8:	f7ff f8a8 	bl	c00104c <pmu_acquire_wakelock>
 c001efc:	487d      	ldr	r0, [pc, #500]	; (c0020f4 <??DataTable22_2>)
